(lp1
V0
aV1
aV10
p2
aV10 feet
p3
aV100
p4
aV11
p5
aV12
p6
aV12:00
p7
aV13
p8
aV14
p9
aV15
p10
aV150
p11
aV16
p12
aV17
p13
aV18
p14
aV19
p15
aV2
aV2 feet
p16
aV20
p17
aV200
p18
aV2011
p19
aV2012
p20
aV2013
p21
aV21
p22
aV22
p23
aV23
p24
aV24
p25
aV25
p26
aV26
p27
aV27
p28
aV28
p29
aV29
p30
aV3
aV3 feet
p31
aV30
p32
aV32
p33
aV33
p34
aV35
p35
aV38
p36
aV4
aV40
p37
aV44
p38
aV45
p39
aV5
aV50
p40
aV55
p41
aV6
aV60
p42
aV7
aV8
aV9
aVa
aVabove
p43
aVadidas
p44
aVadult
p45
aVafrica
p46
aVafrican
p47
aVafternoon
p48
aVair
p49
aVair force
p50
aVairplane
p51
aVairport
p52
aVall
p53
aVamerican
p54
aVanimals
p55
aVantique
p56
aVapartment
p57
aVapple
p58
aVapples
p59
aVapron
p60
aVarmy
p61
aVart
p62
aVasia
p63
aVasian
p64
aVasphalt
p65
aVat camera
p66
aVaustralia
p67
aVaway
p68
aVb
aVbaby
p69
aVback
p70
aVbackground
p71
aVbackpack
p72
aVbacon
p73
aVbag
p74
aVbags
p75
aVbakery
p76
aVbalance
p77
aVball
p78
aVbanana
p79
aVbananas
p80
aVbandana
p81
aVbar
p82
aVbarbed wire
p83
aVbarn
p84
aVbaseball
p85
aVbaseball bat
p86
aVbaseball field
p87
aVbasil
p88
aVbasket
p89
aVbasketball
p90
aVbat
p91
aVbathroom
p92
aVbatter
p93
aVbatting
p94
aVbeach
p95
aVbeans
p96
aVbear
p97
aVbeard
p98
aVbears
p99
aVbed
p100
aVbedroom
p101
aVbeef
p102
aVbeer
p103
aVbehind
p104
aVbehind fence
p105
aVbeige
p106
aVbell
p107
aVbench
p108
aVbib
p109
aVbicycle
p110
aVbicycles
p111
aVbig
p112
aVbig ben
p113
aVbike
p114
aVbikes
p115
aVbikini
p116
aVbird
p117
aVbirds
p118
aVbirthday
p119
aVblack
p120
aVblack and red
p121
aVblack and white
p122
aVblack and yellow
p123
aVblanket
p124
aVblender
p125
aVblinds
p126
aVblonde
p127
aVblue
p128
aVblue and red
p129
aVblue and white
p130
aVblue and yellow
p131
aVbmw
p132
aVboat
p133
aVboats
p134
aVbook
p135
aVbooks
p136
aVboots
p137
aVboth
p138
aVbottle
p139
aVbottom
p140
aVbow
p141
aVbowl
p142
aVbowling
p143
aVbox
p144
aVboxes
p145
aVboy
p146
aVbracelet
p147
aVbranch
p148
aVbread
p149
aVbreakfast
p150
aVbrick
p151
aVbricks
p152
aVbridge
p153
aVbritish
p154
aVbritish airways
p155
aVbroccoli
p156
aVbroken
p157
aVbrown
p158
aVbrown and white
p159
aVbrushing teeth
p160
aVbucket
p161
aVbuilding
p162
aVbull
p163
aVbulldog
p164
aVbun
p165
aVbus
p166
aVbus stop
p167
aVbutter
p168
aVbutterfly
p169
aVc
aVcake
p170
aVcalico
p171
aVcalifornia
p172
aVcalm
p173
aVcamera
p174
aVcamouflage
p175
aVcan
p176
aVcanada
p177
aVcandle
p178
aVcandles
p179
aVcandy
p180
aVcar
p181
aVcardboard
p182
aVcargo
p183
aVcarpet
p184
aVcarriage
p185
aVcarrot
p186
aVcarrots
p187
aVcars
p188
aVcart
p189
aVcat
p190
aVcatcher
p191
aVcatching
p192
aVcatching frisbee
p193
aVcats
p194
aVceiling
p195
aVcell phone
p196
aVcell phones
p197
aVceramic
p198
aVchain
p199
aVchain link
p200
aVchair
p201
aVchairs
p202
aVchandelier
p203
aVcheckered
p204
aVcheese
p205
aVcheesecake
p206
aVchef
p207
aVcherry
p208
aVchicago
p209
aVchicken
p210
aVchihuahua
p211
aVchild
p212
aVchildren
p213
aVchina
p214
aVchinese
p215
aVchocolate
p216
aVchopsticks
p217
aVchristmas
p218
aVchurch
p219
aVcigarette
p220
aVcircle
p221
aVcircles
p222
aVcity
p223
aVclay
p224
aVclean
p225
aVcleaning
p226
aVclear
p227
aVcleats
p228
aVclock
p229
aVclock tower
p230
aVclosed
p231
aVclothes
p232
aVclouds
p233
aVcloudy
p234
aVcoca cola
p235
aVcoffee
p236
aVcoke
p237
aVcold
p238
aVcollar
p239
aVcollie
p240
aVcolor
p241
aVcommercial
p242
aVcomputer
p243
aVconcrete
p244
aVcone
p245
aVcones
p246
aVcontroller
p247
aVcook
p248
aVcookies
p249
aVcooking
p250
aVcorn
p251
aVcorner
p252
aVcouch
p253
aVcounter
p254
aVcow
p255
aVcowboy
p256
aVcows
p257
aVcrane
p258
aVcross
p259
aVcross country
p260
aVcrosswalk
p261
aVcucumber
p262
aVcumulus
p263
aVcup
p264
aVcupcake
p265
aVcurly
p266
aVcutting
p267
aVcutting board
p268
aVcutting cake
p269
aVdaisies
p270
aVdaisy
p271
aVdark
p272
aVday
p273
aVdaytime
p274
aVdecoration
p275
aVdeer
p276
aVdell
p277
aVdelta
p278
aVdesert
p279
aVdesk
p280
aVdessert
p281
aVdiamond
p282
aVdining room
p283
aVdinner
p284
aVdirt
p285
aVdirt bike
p286
aVdirty
p287
aVdo not enter
p288
aVdock
p289
aVdodgers
p290
aVdog
p291
aVdogs
p292
aVdonut
p293
aVdonuts
p294
aVdoor
p295
aVdouble decker
p296
aVdown
p297
aVdownhill
p298
aVdress
p299
aVdrinking
p300
aVdriving
p301
aVdry
p302
aVduck
p303
aVducks
p304
aVdunkin donuts
p305
aVdusk
p306
aVeagle
p307
aVeast
p308
aVeating
p309
aVegg
p310
aVeggs
p311
aVelectric
p312
aVelectricity
p313
aVelephant
p314
aVelephants
p315
aVemirates
p316
aVempty
p317
aVengland
p318
aVenglish
p319
aVeurope
p320
aVevening
p321
aVface
p322
aVfake
p323
aVfall
p324
aVfan
p325
aVfarm
p326
aVfast
p327
aVfedex
p328
aVfedora
p329
aVfell
p330
aVfemale
p331
aVfence
p332
aVfield
p333
aVfinch
p334
aVfire
p335
aVfire hydrant
p336
aVfire truck
p337
aVfireplace
p338
aVfish
p339
aVfishing
p340
aVflag
p341
aVflags
p342
aVflip flops
p343
aVfloor
p344
aVfloral
p345
aVflower
p346
aVflowers
p347
aVflying
p348
aVflying kite
p349
aVflying kites
p350
aVfoil
p351
aVfood
p352
aVfootball
p353
aVford
p354
aVforeground
p355
aVfork
p356
aVfork and knife
p357
aVforward
p358
aVfrance
p359
aVfrench
p360
aVfrench fries
p361
aVfridge
p362
aVfries
p363
aVfrisbee
p364
aVfront
p365
aVfruit
p366
aVfull
p367
aVgame
p368
aVgarage
p369
aVgarbage
p370
aVgas
p371
aVgerman
p372
aVgerman shepherd
p373
aVgermany
p374
aVgiants
p375
aVgiraffe
p376
aVgiraffes
p377
aVgirl
p378
aVglass
p379
aVglasses
p380
aVglazed
p381
aVglove
p382
aVgloves
p383
aVgo
p384
aVgoat
p385
aVgoggles
p386
aVgold
p387
aVgolden retriever
p388
aVgood
p389
aVgothic
p390
aVgraffiti
p391
aVgranite
p392
aVgrapes
p393
aVgrass
p394
aVgray
p395
aVgray and white
p396
aVgrazing
p397
aVgreen
p398
aVgreen and white
p399
aVgreen and yellow
p400
aVgrill
p401
aVground
p402
aVguitar
p403
aVhair
p404
aVhair dryer
p405
aVhalf
p406
aVhalloween
p407
aVham
p408
aVhand
p409
aVhandle
p410
aVhappy
p411
aVharley
p412
aVharley davidson
p413
aVharness
p414
aVhat
p415
aVhats
p416
aVhay
p417
aVhead
p418
aVheadband
p419
aVheadphones
p420
aVheart
p421
aVhello kitty
p422
aVhelmet
p423
aVhelmets
p424
aVhigh
p425
aVhit ball
p426
aVhome
p427
aVhonda
p428
aVhorns
p429
aVhorse
p430
aVhorses
p431
aVhot
p432
aVhot dog
p433
aVhot dogs
p434
aVhotel
p435
aVhouse
p436
aVhungry
p437
aVhydrant
p438
aVi don't know
p439
aVice cream
p440
aVin air
p441
aVin bowl
p442
aVin field
p443
aVin water
p444
aVindia
p445
aVindian
p446
aVindoors
p447
aVinside
p448
aVitalian
p449
aVitaly
p450
aVjacket
p451
aVjapan
p452
aVjeans
p453
aVjet
p454
aVjump
p455
aVjumping
p456
aVketchup
p457
aVkeyboard
p458
aVkia
p459
aVkids
p460
aVkitchen
p461
aVkite
p462
aVkite flying
p463
aVkites
p464
aVknife
p465
aVkrispy kreme
p466
aVlab
p467
aVladder
p468
aVlake
p469
aVlamp
p470
aVlanding
p471
aVlaptop
p472
aVlaptops
p473
aVlarge
p474
aVlaying
p475
aVlaying down
p476
aVleash
p477
aVleather
p478
aVleaves
p479
aVleft
p480
aVlemon
p481
aVlettuce
p482
aVlibrary
p483
aVlight
p484
aVlighthouse
p485
aVlights
p486
aVlilies
p487
aVlion
p488
aVlittle
p489
aVliving room
p490
aVlog
p491
aVlondon
p492
aVlong
p493
aVlot
p494
aVlots
p495
aVlow
p496
aVluggage
p497
aVlunch
p498
aVm
aVmagnets
p499
aVmale
p500
aVman
p501
aVman on left
p502
aVman on right
p503
aVmany
p504
aVmaple
p505
aVmarble
p506
aVmarket
p507
aVmask
p508
aVmcdonald's
p509
aVmeat
p510
aVmedium
p511
aVmen
p512
aVmercedes
p513
aVmetal
p514
aVmicrophone
p515
aVmicrowave
p516
aVmiddle
p517
aVmilitary
p518
aVmilk
p519
aVmirror
p520
aVmodern
p521
aVmonkey
p522
aVmorning
p523
aVmotorcycle
p524
aVmotorcycles
p525
aVmountain
p526
aVmountains
p527
aVmouse
p528
aVmoving
p529
aVmozzarella
p530
aVmuseum
p531
aVmushrooms
p532
aVmustard
p533
aVnapkin
p534
aVnavy
p535
aVnecklace
p536
aVnet
p537
aVnew york
p538
aVnewspaper
p539
aVnight
p540
aVnighttime
p541
aVnike
p542
aVnintendo
p543
aVno
p544
aVno one
p545
aVno parking
p546
aVnokia
p547
aVnone
p548
aVnoon
p549
aVnorth
p550
aVnothing
p551
aVnowhere
p552
aVoak
p553
aVobama
p554
aVocean
p555
aVoctagon
p556
aVoff
p557
aVoffice
p558
aVoil
p559
aVold
p560
aVolives
p561
aVon
p562
aVon bed
p563
aVon building
p564
aVon counter
p565
aVon desk
p566
aVon floor
p567
aVon grass
p568
aVon ground
p569
aVon left
p570
aVon plate
p571
aVon right
p572
aVon sidewalk
p573
aVon street
p574
aVon table
p575
aVon tower
p576
aVon tracks
p577
aVon wall
p578
aVone on left
p579
aVone on right
p580
aVone way
p581
aVonions
p582
aVopen
p583
aVorange
p584
aVorange and white
p585
aVorange juice
p586
aVoranges
p587
aVorioles
p588
aVoutdoor
p589
aVoutdoors
p590
aVoutside
p591
aVoval
p592
aVoven
p593
aVovercast
p594
aVowl
p595
aVowner
p596
aVp
aVpaint
p597
aVpainting
p598
aVpalm
p599
aVpanda
p600
aVpaper
p601
aVparade
p602
aVparasailing
p603
aVpark
p604
aVparked
p605
aVparking
p606
aVparking lot
p607
aVparking meter
p608
aVparrot
p609
aVparsley
p610
aVparty
p611
aVpassenger
p612
aVpasta
p613
aVpeace
p614
aVpelican
p615
aVpen
p616
aVpeople
p617
aVpepper
p618
aVpepperoni
p619
aVpeppers
p620
aVpepsi
p621
aVperson
p622
aVphone
p623
aVphones
p624
aVphotographer
p625
aVpiano
p626
aVpickle
p627
aVpickles
p628
aVpicture
p629
aVpictures
p630
aVpier
p631
aVpig
p632
aVpigeon
p633
aVpigeons
p634
aVpillow
p635
aVpilot
p636
aVpine
p637
aVpineapple
p638
aVpink
p639
aVpitcher
p640
aVpitching
p641
aVpizza
p642
aVpizza cutter
p643
aVplaid
p644
aVplane
p645
aVplant
p646
aVplants
p647
aVplastic
p648
aVplate
p649
aVplaying
p650
aVplaying baseball
p651
aVplaying frisbee
p652
aVplaying game
p653
aVplaying tennis
p654
aVplaying wii
p655
aVpolar
p656
aVpolar bear
p657
aVpole
p658
aVpoles
p659
aVpolice
p660
aVpolka dot
p661
aVpolo
p662
aVponytail
p663
aVpoodle
p664
aVpork
p665
aVposing
p666
aVpot
p667
aVpotatoes
p668
aVpower lines
p669
aVprotection
p670
aVpublic
p671
aVpug
p672
aVpurple
p673
aVpurse
p674
aVracing
p675
aVracket
p676
aVrailing
p677
aVrain
p678
aVrainbow
p679
aVraining
p680
aVrainy
p681
aVramp
p682
aVreading
p683
aVreal
p684
aVrectangle
p685
aVred
p686
aVred and black
p687
aVred and blue
p688
aVred and green
p689
aVred and white
p690
aVred and yellow
p691
aVred sox
p692
aVred white and blue
p693
aVreflection
p694
aVrefrigerator
p695
aVremote
p696
aVrestaurant
p697
aVresting
p698
aVrice
p699
aVriding
p700
aVright
p701
aVring
p702
aVriver
p703
aVroad
p704
aVrock
p705
aVrocks
p706
aVroman
p707
aVroman numerals
p708
aVrope
p709
aVrose
p710
aVroses
p711
aVround
p712
aVrug
p713
aVrunning
p714
aVrunway
p715
aVrural
p716
aVsad
p717
aVsafety
p718
aVsailboat
p719
aVsalad
p720
aVsamsung
p721
aVsan francisco
p722
aVsand
p723
aVsandals
p724
aVsandwich
p725
aVsandwiches
p726
aVsanta
p727
aVsauce
p728
aVsausage
p729
aVscarf
p730
aVschool
p731
aVscissors
p732
aVscooter
p733
aVseagull
p734
aVseagulls
p735
aVselfie
p736
aVserve
p737
aVserving
p738
aVsetting
p739
aVshade
p740
aVshadow
p741
aVshallow
p742
aVsheep
p743
aVshelf
p744
aVship
p745
aVshirt
p746
aVshoe
p747
aVshoes
p748
aVshort
p749
aVshorts
p750
aVshower
p751
aVshrimp
p752
aVsiamese
p753
aVsidewalk
p754
aVsign
p755
aVsilver
p756
aVsink
p757
aVsitting
p758
aVskate park
p759
aVskateboard
p760
aVskateboarder
p761
aVskateboarding
p762
aVskateboards
p763
aVski
p764
aVski lift
p765
aVski poles
p766
aVskier
p767
aVskiing
p768
aVskis
p769
aVskull
p770
aVsky
p771
aVsleeping
p772
aVslow
p773
aVsmall
p774
aVsmile
p775
aVsmiling
p776
aVsmoke
p777
aVsmoothie
p778
aVsneakers
p779
aVsnow
p780
aVsnowboard
p781
aVsnowboarding
p782
aVsnowy
p783
aVsoccer
p784
aVsoccer ball
p785
aVsoda
p786
aVsony
p787
aVsoup
p788
aVsouth
p789
aVspanish
p790
aVsparrow
p791
aVspinach
p792
aVspoon
p793
aVspring
p794
aVsprinkles
p795
aVsquare
p796
aVstainless steel
p797
aVstairs
p798
aVstanding
p799
aVstar
p800
aVstarbucks
p801
aVstars
p802
aVstation
p803
aVstatue
p804
aVsteak
p805
aVsteam
p806
aVsteel
p807
aVstick
p808
aVstone
p809
aVstool
p810
aVstop
p811
aVstop sign
p812
aVstore
p813
aVstove
p814
aVstraight
p815
aVstraw
p816
aVstrawberries
p817
aVstrawberry
p818
aVstreet
p819
aVstring
p820
aVstriped
p821
aVstripes
p822
aVstuffed animal
p823
aVstuffed animals
p824
aVsubway
p825
aVsugar
p826
aVsuit
p827
aVsuitcase
p828
aVsuitcases
p829
aVsummer
p830
aVsun
p831
aVsunglasses
p832
aVsunny
p833
aVsunset
p834
aVsurf
p835
aVsurfboard
p836
aVsurfboards
p837
aVsurfer
p838
aVsurfing
p839
aVsuv
p840
aVswan
p841
aVsweater
p842
aVswimming
p843
aVswinging
p844
aVt
aVtabby
p845
aVtable
p846
aVtag
p847
aVtail
p848
aVtaking off
p849
aVtaking picture
p850
aVtalking
p851
aVtalking on phone
p852
aVtall
p853
aVtan
p854
aVtank top
p855
aVtattoo
p856
aVtaxi
p857
aVtea
p858
aVteddy bear
p859
aVteddy bears
p860
aVtennis
p861
aVtennis ball
p862
aVtennis court
p863
aVtennis racket
p864
aVtennis rackets
p865
aVterrier
p866
aVtexting
p867
aVthin
p868
aVthrowing
p869
aVtie
p870
aVtiger
p871
aVtile
p872
aVtoaster oven
p873
aVtoilet
p874
aVtoilet paper
p875
aVtomato
p876
aVtomatoes
p877
aVtoothbrush
p878
aVtoothbrushes
p879
aVtop
p880
aVtowel
p881
aVtowels
p882
aVtower
p883
aVtoy
p884
aVtoyota
p885
aVtracks
p886
aVtraffic
p887
aVtrain
p888
aVtrain station
p889
aVtransportation
p890
aVtrash
p891
aVtrash can
p892
aVtraveling
p893
aVtray
p894
aVtree
p895
aVtrees
p896
aVtriangle
p897
aVtruck
p898
aVtulips
p899
aVturkey
p900
aVtusks
p901
aVtv
p902
aVtwin
p903
aVtyping
p904
aVumbrella
p905
aVumbrellas
p906
aVumpire
p907
aVunited
p908
aVunited states
p909
aVunknown
p910
aVup
p911
aVuphill
p912
aVurban
p913
aVusa
p914
aVvan
p915
aVvanilla
p916
aVvase
p917
aVvases
p918
aVvegetable
p919
aVvegetables
p920
aVvertical
p921
aVvery
p922
aVvery tall
p923
aVvest
p924
aVvisor
p925
aVvolleyball
p926
aVw
aVwagon
p927
aVwaiting
p928
aVwalking
p929
aVwall
p930
aVwarm
p931
aVwashington
p932
aVwashington dc
p933
aVwatch
p934
aVwatching
p935
aVwatching tv
p936
aVwater
p937
aVwater bottle
p938
aVwater skiing
p939
aVwatermelon
p940
aVwave
p941
aVwaves
p942
aVwedding
p943
aVwest
p944
aVwet
p945
aVwetsuit
p946
aVwhite
p947
aVwhite and black
p948
aVwhite and blue
p949
aVwhite and brown
p950
aVwhite and red
p951
aVwicker
p952
aVwii
p953
aVwii controller
p954
aVwii remote
p955
aVwild
p956
aVwilson
p957
aVwind
p958
aVwindow
p959
aVwindows
p960
aVwine
p961
aVwine glass
p962
aVwinter
p963
aVwire
p964
aVwires
p965
aVwoman
p966
aVwomen
p967
aVwood
p968
aVwooden
p969
aVwoods
p970
aVwool
p971
aVwork
p972
aVworking
p973
aVx
aVyellow
p974
aVyellow and black
p975
aVyellow and blue
p976
aVyellow and red
p977
aVyellow and white
p978
aVyes
p979
aVyoung
p980
aVzebra
p981
aVzebras
p982
aVzoo
p983
a.