(lp1
V$350
p2
aV0
aV000
p3
aV007
p4
aV1
aV1 foot
p5
aV1 hour
p6
aV1 inch
p7
aV1 way
p8
aV1/3
p9
aV1/4
p10
aV10
p11
aV10 feet
p12
aV10 minutes
p13
aV10 years
p14
aV100
p15
aV100 feet
p16
aV1000
p17
aV101
p18
aV106
p19
aV10:00
p20
aV10:05
p21
aV10:08
p22
aV10:10
p23
aV10:20
p24
aV10:30
p25
aV10:35
p26
aV10:40
p27
aV10:45
p28
aV10:50
p29
aV11
p30
aV11:00
p31
aV11:05
p32
aV11:10
p33
aV11:15
p34
aV11:20
p35
aV11:25
p36
aV11:30
p37
aV11:40
p38
aV11:50
p39
aV11:55
p40
aV12
p41
aV12 feet
p42
aV120
p43
aV12:00
p44
aV12:05
p45
aV12:10
p46
aV12:15
p47
aV12:20
p48
aV12:25
p49
aV12:30
p50
aV12:35
p51
aV12:40
p52
aV12:55
p53
aV13
p54
aV14
p55
aV140
p56
aV144
p57
aV15
p58
aV15 feet
p59
aV150
p60
aV16
p61
aV17
p62
aV18
p63
aV19
p64
aV1900
p65
aV1920
p66
aV1930
p67
aV1950
p68
aV1950's
p69
aV1950s
p70
aV1:00
p71
aV1:05
p72
aV1:10
p73
aV1:15
p74
aV1:20
p75
aV1:22
p76
aV1:24
p77
aV1:25
p78
aV1:30
p79
aV1:35
p80
aV1:40
p81
aV1:50
p82
aV1:55
p83
aV1st
p84
aV2
aV2 feet
p85
aV2 hours
p86
aV2 people
p87
aV2.00
p88
aV20
p89
aV20 feet
p90
aV200
p91
aV2000
p92
aV2005
p93
aV2007
p94
aV2008
p95
aV2009
p96
aV2010
p97
aV2011
p98
aV2012
p99
aV2013
p100
aV21
p101
aV22
p102
aV23
p103
aV24
p104
aV25
p105
aV25 cents
p106
aV26
p107
aV27
p108
aV28
p109
aV29
p110
aV2:00
p111
aV2:05
p112
aV2:10
p113
aV2:15
p114
aV2:20
p115
aV2:25
p116
aV2:30
p117
aV2:35
p118
aV2:45
p119
aV2:50
p120
aV2:55
p121
aV2nd
p122
aV2nd from left
p123
aV3
aV3 feet
p124
aV3 hours
p125
aV3 inches
p126
aV3 months
p127
aV30
p128
aV300
p129
aV309
p130
aV31
p131
aV32
p132
aV33
p133
aV34
p134
aV35
p135
aV350
p136
aV36
p137
aV37
p138
aV38
p139
aV39
p140
aV3:00
p141
aV3:05
p142
aV3:10
p143
aV3:18
p144
aV3:20
p145
aV3:25
p146
aV3:30
p147
aV3:40
p148
aV3:45
p149
aV3:50
p150
aV3:55
p151
aV3rd
p152
aV4
aV4 feet
p153
aV4 ft
p154
aV4 inches
p155
aV4-way
p156
aV40
p157
aV41
p158
aV42
p159
aV43
p160
aV44
p161
aV45
p162
aV450
p163
aV46
p164
aV47
p165
aV48
p166
aV49
p167
aV4:00
p168
aV4:05
p169
aV4:15
p170
aV4:20
p171
aV4:30
p172
aV4:35
p173
aV4:50
p174
aV5
aV5 feet
p175
aV5 ft
p176
aV5 years
p177
aV50
p178
aV500
p179
aV51
p180
aV52
p181
aV53
p182
aV54
p183
aV55
p184
aV5:00
p185
aV5:05
p186
aV5:10
p187
aV5:15
p188
aV5:25
p189
aV5:40
p190
aV5:45
p191
aV5:55
p192
aV6
aV6 feet
p193
aV6 inches
p194
aV60
p195
aV61
p196
aV63
p197
aV64
p198
aV65
p199
aV66
p200
aV68
p201
aV6:00
p202
aV6:25
p203
aV6:30
p204
aV6:40
p205
aV6:45
p206
aV7
aV7 eleven
p207
aV70
p208
aV700
p209
aV74
p210
aV747
p211
aV75
p212
aV7:25
p213
aV7:35
p214
aV7:45
p215
aV8
aV8 feet
p216
aV80
p217
aV88
p218
aV8:00
p219
aV8:20
p220
aV8:45
p221
aV8:50
p222
aV9
aV90 degrees
p223
aV95
p224
aV99
p225
aV9:05
p226
aV9:15
p227
aV9:25
p228
aV9:30
p229
aV9:35
p230
aV9:45
p231
aV9:50
p232
aV9:55
p233
aVa
aVa's
p234
aVaa
p235
aVabove
p236
aVabove door
p237
aVabove sink
p238
aVabove stove
p239
aVabove toilet
p240
aVabove train
p241
aVabstract
p242
aVaccident
p243
aVacross street
p244
aVadidas
p245
aVadult
p246
aVadvertisement
p247
aVadvertising
p248
aVafrica
p249
aVafrican
p250
aVafrican american
p251
aVafro
p252
aVafternoon
p253
aVagainst wall
p254
aVage
p255
aVair
p256
aVair canada
p257
aVair conditioner
p258
aVair force
p259
aVair france
p260
aVair transat
p261
aVairplane
p262
aVairplanes
p263
aVairport
p264
aValaska
p265
aValcohol
p266
aValitalia
p267
aVall
p268
aVall way
p269
aValligator
p270
aValmonds
p271
aValuminum
p272
aValuminum foil
p273
aVambulance
p274
aVamerica
p275
aVamerican
p276
aVamerican airlines
p277
aVamerican flag
p278
aVamish
p279
aVamtrak
p280
aVana
p281
aVanalog
p282
aVangel
p283
aVangels
p284
aVanger
p285
aVangry birds
p286
aVanimals
p287
aVanimated
p288
aVankle
p289
aVantelope
p290
aVantenna
p291
aVantique
p292
aVapartment
p293
aVapartments
p294
aVapple
p295
aVapple and banana
p296
aVapples
p297
aVapples and oranges
p298
aVapron
p299
aVarabic
p300
aVarch
p301
aVarm
p302
aVarmy
p303
aVaround neck
p304
aVarriving
p305
aVarrow
p306
aVart
p307
aVartist
p308
aVascending
p309
aVasia
p310
aVasian
p311
aVasleep
p312
aVasparagus
p313
aVasphalt
p314
aVasus
p315
aVat camera
p316
aVat&t
p317
aVathletics
p318
aVatm
p319
aVatv
p320
aVaudi
p321
aVaustralia
p322
aVavocado
p323
aVawake
p324
aVaway
p325
aVb
aVbabies
p326
aVbaby
p327
aVbaby's breath
p328
aVback
p329
aVback left
p330
aVback of truck
p331
aVbackground
p332
aVbackhand
p333
aVbackpack
p334
aVbackward
p335
aVbackwards
p336
aVbacon
p337
aVbad
p338
aVbadminton
p339
aVbag
p340
aVbagel
p341
aVbagels
p342
aVbaggage claim
p343
aVbags
p344
aVbaked
p345
aVbaker
p346
aVbakery
p347
aVbalance
p348
aVbalcony
p349
aVbald
p350
aVball
p351
aVballoon
p352
aVballoons
p353
aVballs
p354
aVbaltimore
p355
aVbamboo
p356
aVbanana
p357
aVbanana and orange
p358
aVbanana bread
p359
aVbanana peel
p360
aVbananas
p361
aVbananas and oranges
p362
aVbandana
p363
aVbank
p364
aVbank of america
p365
aVbar
p366
aVbarbecue
p367
aVbarbed wire
p368
aVbarber shop
p369
aVbarn
p370
aVbarrel
p371
aVbarrette
p372
aVbarrier
p373
aVbars
p374
aVbase
p375
aVbaseball
p376
aVbaseball bat
p377
aVbaseball cap
p378
aVbaseball field
p379
aVbaseball game
p380
aVbaseball glove
p381
aVbaseball player
p382
aVbaseball players
p383
aVbaseball uniform
p384
aVbasil
p385
aVbasket
p386
aVbasketball
p387
aVbaskets
p388
aVbat
p389
aVbathe
p390
aVbathing
p391
aVbathroom
p392
aVbathtub
p393
aVbatman
p394
aVbats
p395
aVbatter
p396
aVbatting
p397
aVbeach
p398
aVbeads
p399
aVbeagle
p400
aVbeanie
p401
aVbeans
p402
aVbear
p403
aVbeard
p404
aVbears
p405
aVbed
p406
aVbedroom
p407
aVbeef
p408
aVbeer
p409
aVbeets
p410
aVbefore
p411
aVbehind
p412
aVbehind bench
p413
aVbehind clouds
p414
aVbehind dog
p415
aVbehind fence
p416
aVbehind him
p417
aVbehind horse
p418
aVbehind laptop
p419
aVbehind people
p420
aVbehind truck
p421
aVbehind woman
p422
aVbeige
p423
aVbell
p424
aVbelow
p425
aVbelt
p426
aVbench
p427
aVbenches
p428
aVberries
p429
aVbib
p430
aVbicycle
p431
aVbicycles
p432
aVbidet
p433
aVbig
p434
aVbig ben
p435
aVbike
p436
aVbike rack
p437
aVbikers
p438
aVbikes
p439
aVbiking
p440
aVbikini
p441
aVbiplane
p442
aVbird
p443
aVbird seed
p444
aVbirds
p445
aVbirthday
p446
aVbirthday cake
p447
aVblack
p448
aVblack and blue
p449
aVblack and brown
p450
aVblack and gray
p451
aVblack and orange
p452
aVblack and red
p453
aVblack and silver
p454
aVblack and white
p455
aVblack and yellow
p456
aVblack bear
p457
aVblack one
p458
aVblackberry
p459
aVblanket
p460
aVblankets
p461
aVbleachers
p462
aVblender
p463
aVblending
p464
aVblinders
p465
aVblinds
p466
aVblocks
p467
aVblonde
p468
aVblood
p469
aVblue
p470
aVblue and black
p471
aVblue and gray
p472
aVblue and green
p473
aVblue and pink
p474
aVblue and red
p475
aVblue and white
p476
aVblue and yellow
p477
aVblue angels
p478
aVblue jay
p479
aVblue team
p480
aVblueberries
p481
aVblurry
p482
aVbmw
p483
aVboard
p484
aVboarding
p485
aVboat
p486
aVboating
p487
aVboats
p488
aVbob
p489
aVboeing
p490
aVbone
p491
aVboogie board
p492
aVbook
p493
aVbooks
p494
aVbookshelf
p495
aVboots
p496
aVborder collie
p497
aVboredom
p498
aVboston
p499
aVboth
p500
aVbottle
p501
aVbottles
p502
aVbottom
p503
aVbottom left
p504
aVbottom right
p505
aVboundaries
p506
aVbow
p507
aVbow tie
p508
aVbowl
p509
aVbowler
p510
aVbowling
p511
aVbowtie
p512
aVbox
p513
aVboxes
p514
aVboxing
p515
aVboy
p516
aVboy scouts
p517
aVboys
p518
aVbrace
p519
aVbracelet
p520
aVbraid
p521
aVbraids
p522
aVbranch
p523
aVbrand
p524
aVbraves
p525
aVbrazil
p526
aVbread
p527
aVbreakfast
p528
aVbrewers
p529
aVbrick
p530
aVbricks
p531
aVbridge
p532
aVbridle
p533
aVbriefcase
p534
aVbright
p535
aVbritain
p536
aVbritish
p537
aVbritish airways
p538
aVbroadway
p539
aVbroccoli
p540
aVbroccoli and carrots
p541
aVbroke
p542
aVbroken
p543
aVbronze
p544
aVbroom
p545
aVbrown
p546
aVbrown and black
p547
aVbrown and white
p548
aVbrush
p549
aVbrushing
p550
aVbrushing hair
p551
aVbrushing her teeth
p552
aVbrushing his teeth
p553
aVbrushing teeth
p554
aVbucket
p555
aVbud light
p556
aVbudweiser
p557
aVbuffalo
p558
aVbuilding
p559
aVbuildings
p560
aVbull
p561
aVbulldog
p562
aVbulls
p563
aVbump
p564
aVbun
p565
aVbundt
p566
aVbunk
p567
aVbunk beds
p568
aVbunny
p569
aVbuns
p570
aVbuoy
p571
aVburger
p572
aVburgers
p573
aVburned
p574
aVburnt
p575
aVburrito
p576
aVburton
p577
aVbus
p578
aVbus driver
p579
aVbus station
p580
aVbus stop
p581
aVbuses
p582
aVbush
p583
aVbushes
p584
aVbusiness
p585
aVbusy
p586
aVbutt
p587
aVbutter
p588
aVbutterflies
p589
aVbutterfly
p590
aVbutton
p591
aVbutton up
p592
aVby water
p593
aVby window
p594
aVc
aVcabbage
p595
aVcabinet
p596
aVcabinets
p597
aVcaboose
p598
aVcactus
p599
aVcadillac
p600
aVcafe
p601
aVcages
p602
aVcake
p603
aVcakes
p604
aVcalculator
p605
aVcalendar
p606
aVcalf
p607
aVcalico
p608
aVcalifornia
p609
aVcalm
p610
aVcalzone
p611
aVcamel
p612
aVcamera
p613
aVcamera flash
p614
aVcameras
p615
aVcamo
p616
aVcamouflage
p617
aVcamper
p618
aVcamping
p619
aVcan
p620
aVcanada
p621
aVcandle
p622
aVcandles
p623
aVcandy
p624
aVcane
p625
aVcanoe
p626
aVcanon
p627
aVcanopy
p628
aVcans
p629
aVcantaloupe
p630
aVcap
p631
aVcaptive
p632
aVcaptivity
p633
aVcar
p634
aVcar show
p635
aVcaramel
p636
aVcard
p637
aVcardboard
p638
aVcardinal
p639
aVcardinals
p640
aVcargo
p641
aVcarpet
p642
aVcarriage
p643
aVcarrot
p644
aVcarrots
p645
aVcars
p646
aVcart
p647
aVcase
p648
aVcasserole
p649
aVcast iron
p650
aVcastle
p651
aVcat
p652
aVcat and dog
p653
aVcat in hat
p654
aVcatch ball
p655
aVcatcher
p656
aVcatching
p657
aVcatching frisbee
p658
aVcatholic
p659
aVcats
p660
aVcaucasian
p661
aVcauliflower
p662
aVcaution
p663
aVcd
p664
aVceiling
p665
aVcelery
p666
aVcell
p667
aVcell phone
p668
aVcell phones
p669
aVcello
p670
aVcement
p671
aVcenter
p672
aVcentral
p673
aVceramic
p674
aVcereal
p675
aVcessna
p676
aVchain
p677
aVchain link
p678
aVchains
p679
aVchair
p680
aVchairs
p681
aVchalk
p682
aVchalkboard
p683
aVchampagne
p684
aVchandelier
p685
aVchase
p686
aVcheckerboard
p687
aVcheckered
p688
aVcheddar
p689
aVcheese
p690
aVcheesecake
p691
aVchef
p692
aVcherries
p693
aVcherry
p694
aVchest
p695
aVchevrolet
p696
aVchevron
p697
aVchevy
p698
aVchicago
p699
aVchicken
p700
aVchickens
p701
aVchihuahua
p702
aVchild
p703
aVchildren
p704
aVchili
p705
aVchimney
p706
aVchina
p707
aVchinese
p708
aVchips
p709
aVchiquita
p710
aVchocolate
p711
aVchopsticks
p712
aVchristmas
p713
aVchristmas tree
p714
aVchurch
p715
aVciabatta
p716
aVcigarette
p717
aVcigarettes
p718
aVcilantro
p719
aVcinnamon
p720
aVcircle
p721
aVcircles
p722
aVcircus
p723
aVcirrus
p724
aVcity
p725
aVclassic
p726
aVclay
p727
aVclean
p728
aVcleaner
p729
aVcleaning
p730
aVcleaning itself
p731
aVclear
p732
aVcleats
p733
aVcleveland
p734
aVclimbing
p735
aVclip
p736
aVclock
p737
aVclock tower
p738
aVclocks
p739
aVclockwise
p740
aVclose
p741
aVclosed
p742
aVcloth
p743
aVclothes
p744
aVclothesline
p745
aVclothing
p746
aVcloud
p747
aVclouds
p748
aVcloudy
p749
aVclover
p750
aVclown
p751
aVclub
p752
aVcluttered
p753
aVclydesdale
p754
aVcoach
p755
aVcoal
p756
aVcoaster
p757
aVcoat
p758
aVcoats
p759
aVcobblestone
p760
aVcoca cola
p761
aVcoca-cola
p762
aVcoconut
p763
aVcoffee
p764
aVcoffee maker
p765
aVcoffee table
p766
aVcoins
p767
aVcoke
p768
aVcold
p769
aVcoleslaw
p770
aVcolgate
p771
aVcollage
p772
aVcollar
p773
aVcollie
p774
aVcolonial
p775
aVcolor
p776
aVcolorado
p777
aVcoming
p778
aVcommercial
p779
aVcomputer
p780
aVcomputers
p781
aVconcert
p782
aVconcrete
p783
aVcondiments
p784
aVconductor
p785
aVcone
p786
aVcones
p787
aVconference
p788
aVconfused
p789
aVcongratulations
p790
aVconstruction
p791
aVcontainer
p792
aVcontinental
p793
aVcontrol
p794
aVcontroller
p795
aVcontrollers
p796
aVconverse
p797
aVcook
p798
aVcooked
p799
aVcookie
p800
aVcookies
p801
aVcooking
p802
aVcool
p803
aVcooler
p804
aVcop
p805
aVcopper
p806
aVcopyright
p807
aVcord
p808
aVcorgi
p809
aVcorn
p810
aVcorner
p811
aVcorona
p812
aVcostume
p813
aVcotton
p814
aVcouch
p815
aVcounter
p816
aVcountry
p817
aVcountryside
p818
aVcouple
p819
aVcow
p820
aVcowboy
p821
aVcows
p822
aVcrab
p823
aVcrafts
p824
aVcrane
p825
aVcranes
p826
aVcrazy
p827
aVcream
p828
aVcrest
p829
aVcrib
p830
aVcrochet
p831
aVcrocs
p832
aVcroissant
p833
aVcross
p834
aVcross country
p835
aVcrossed
p836
aVcrossing
p837
aVcrosswalk
p838
aVcrouching
p839
aVcrow
p840
aVcrowd
p841
aVcrown
p842
aVcrows
p843
aVcubs
p844
aVcuckoo
p845
aVcucumber
p846
aVcucumbers
p847
aVcumulus
p848
aVcup
p849
aVcupcake
p850
aVcupcakes
p851
aVcups
p852
aVcurb
p853
aVcurious
p854
aVcurly
p855
aVcurtain
p856
aVcurtains
p857
aVcurved
p858
aVcustom
p859
aVcut
p860
aVcut off
p861
aVcute
p862
aVcutting
p863
aVcutting board
p864
aVcutting cake
p865
aVcutting hair
p866
aVcylinder
p867
aVd
aVdachshund
p868
aVdad
p869
aVdaffodils
p870
aVdairy
p871
aVdaisies
p872
aVdaisy
p873
aVdalmatian
p874
aVdancing
p875
aVdandelion
p876
aVdark
p877
aVday
p878
aVday time
p879
aVdaytime
p880
aVdb
p881
aVdead
p882
aVdead end
p883
aVdecember
p884
aVdeck
p885
aVdecoration
p886
aVdecorative
p887
aVdeep
p888
aVdeer
p889
aVdeli
p890
aVdelivery
p891
aVdell
p892
aVdelta
p893
aVdenim
p894
aVdesert
p895
aVdesign
p896
aVdesk
p897
aVdesktop
p898
aVdessert
p899
aVdesserts
p900
aVdetroit
p901
aVdiagonal
p902
aVdiamond
p903
aVdiamonds
p904
aVdiesel
p905
aVdiet coke
p906
aVdifferent teams
p907
aVdigital
p908
aVdining
p909
aVdining room
p910
aVdinner
p911
aVdinosaur
p912
aVdirection
p913
aVdirections
p914
aVdirt
p915
aVdirt bike
p916
aVdirty
p917
aVdishes
p918
aVdishwasher
p919
aVdo not enter
p920
aVdock
p921
aVdoctor
p922
aVdodge
p923
aVdodgers
p924
aVdog
p925
aVdog bed
p926
aVdogs
p927
aVdoily
p928
aVdole
p929
aVdoll
p930
aVdome
p931
aVdon't know
p932
aVdon't walk
p933
aVdonkey
p934
aVdonut
p935
aVdonuts
p936
aVdoor
p937
aVdots
p938
aVdouble
p939
aVdouble decker
p940
aVdoubles
p941
aVdough
p942
aVdoughnut
p943
aVdoughnuts
p944
aVdown
p945
aVdown street
p946
aVdownhill
p947
aVdowntown
p948
aVdr pepper
p949
aVdragon
p950
aVdrain
p951
aVdrawing
p952
aVdreadlocks
p953
aVdress
p954
aVdresser
p955
aVdrill
p956
aVdrink
p957
aVdrinking
p958
aVdrinking water
p959
aVdrinks
p960
aVdriveway
p961
aVdriving
p962
aVdrums
p963
aVdry
p964
aVdrying
p965
aVdrying hair
p966
aVducati
p967
aVduck
p968
aVducks
p969
aVdugout
p970
aVdump truck
p971
aVdunkin donuts
p972
aVdusk
p973
aVe
aVeagle
p974
aVear
p975
aVearring
p976
aVearrings
p977
aVears
p978
aVeast
p979
aVeaster
p980
aVeaston
p981
aVeasyjet
p982
aVeat
p983
aVeat it
p984
aVeaten
p985
aVeating
p986
aVegg
p987
aVeggplant
p988
aVeggs
p989
aVegypt
p990
aVeiffel tower
p991
aVelectric
p992
aVelectricity
p993
aVelectronics
p994
aVelephant
p995
aVelephants
p996
aVelm
p997
aVelmo
p998
aVemergency
p999
aVemirates
p1000
aVempty
p1001
aVend
p1002
aVengine
p1003
aVengland
p1004
aVenglish
p1005
aVequestrian
p1006
aVescalator
p1007
aVeurope
p1008
aVevening
p1009
aVevergreen
p1010
aVexit
p1011
aVexpert
p1012
aVeyes
p1013
aVf
aVfabric
p1014
aVface
p1015
aVfacebook
p1016
aVfake
p1017
aVfall
p1018
aVfalling
p1019
aVfamily
p1020
aVfan
p1021
aVfancy
p1022
aVfanta
p1023
aVfar
p1024
aVfar left
p1025
aVfar right
p1026
aVfarm
p1027
aVfarmer
p1028
aVfarmers market
p1029
aVfashion
p1030
aVfast
p1031
aVfaucet
p1032
aVfeathers
p1033
aVfedex
p1034
aVfedora
p1035
aVfeeder
p1036
aVfeeding
p1037
aVfeeding giraffe
p1038
aVfeet
p1039
aVfell
p1040
aVfemale
p1041
aVfence
p1042
aVfern
p1043
aVferry
p1044
aVfestival
p1045
aVfeta
p1046
aVfield
p1047
aVfighting
p1048
aVfinch
p1049
aVfire
p1050
aVfire extinguisher
p1051
aVfire hydrant
p1052
aVfire truck
p1053
aVfirefighter
p1054
aVfirefox
p1055
aVfireman
p1056
aVfiremen
p1057
aVfireplace
p1058
aVfires
p1059
aVfireworks
p1060
aVfirst
p1061
aVfirst base
p1062
aVfish
p1063
aVfisheye
p1064
aVfishing
p1065
aVfishnet
p1066
aVflag
p1067
aVflags
p1068
aVflames
p1069
aVflamingo
p1070
aVflash
p1071
aVflat
p1072
aVflat screen
p1073
aVflatbread
p1074
aVflats
p1075
aVflickr
p1076
aVflip
p1077
aVflip flops
p1078
aVflip phone
p1079
aVfloating
p1080
aVflock
p1081
aVfloor
p1082
aVfloral
p1083
aVflorida
p1084
aVflour
p1085
aVflower
p1086
aVflowers
p1087
aVfluffy
p1088
aVfluorescent
p1089
aVfly
p1090
aVfly kite
p1091
aVflying
p1092
aVflying kite
p1093
aVflying kites
p1094
aVfoam
p1095
aVfocus
p1096
aVfog
p1097
aVfoggy
p1098
aVfoil
p1099
aVfolded
p1100
aVfood
p1101
aVfood processor
p1102
aVfood truck
p1103
aVfoot
p1104
aVfootball
p1105
aVfootprints
p1106
aVfor balance
p1107
aVfor fun
p1108
aVfor photo
p1109
aVfor sale
p1110
aVfor train
p1111
aVford
p1112
aVforeground
p1113
aVforehand
p1114
aVforest
p1115
aVfork
p1116
aVfork and knife
p1117
aVfork and spoon
p1118
aVforklift
p1119
aVforks
p1120
aVformal
p1121
aVforward
p1122
aVfountain
p1123
aVfox
p1124
aVfrance
p1125
aVfree
p1126
aVfreight
p1127
aVfrench
p1128
aVfrench fries
p1129
aVfresh
p1130
aVfridge
p1131
aVfried
p1132
aVfriend
p1133
aVfriends
p1134
aVfries
p1135
aVfrisbee
p1136
aVfrisbee golf
p1137
aVfrisbees
p1138
aVfrog
p1139
aVfront
p1140
aVfront of train
p1141
aVfrosting
p1142
aVfruit
p1143
aVfruits
p1144
aVfull
p1145
aVfun
p1146
aVfunny
p1147
aVfur
p1148
aVfurniture
p1149
aVfuton
p1150
aVg
aVgame
p1151
aVgame controller
p1152
aVgarage
p1153
aVgarbage
p1154
aVgarden
p1155
aVgarlic
p1156
aVgas
p1157
aVgas station
p1158
aVgate
p1159
aVgatorade
p1160
aVgazebo
p1161
aVgazelle
p1162
aVge
p1163
aVgeese
p1164
aVgenetics
p1165
aVgerman
p1166
aVgerman shepherd
p1167
aVgermany
p1168
aVgetting food
p1169
aVgiants
p1170
aVginger
p1171
aVgiraffe
p1172
aVgiraffes
p1173
aVgirl
p1174
aVgirl on right
p1175
aVgirls
p1176
aVglass
p1177
aVglasses
p1178
aVglaze
p1179
aVglazed
p1180
aVglobe
p1181
aVglove
p1182
aVgloves
p1183
aVgmc
p1184
aVgnome
p1185
aVgo
p1186
aVgoalie
p1187
aVgoat
p1188
aVgoatee
p1189
aVgoats
p1190
aVgoggles
p1191
aVgoing
p1192
aVgold
p1193
aVgolden gate
p1194
aVgolden retriever
p1195
aVgolf
p1196
aVgone
p1197
aVgood
p1198
aVgoogle
p1199
aVgoose
p1200
aVgothic
p1201
aVgraduation
p1202
aVgraffiti
p1203
aVgrandfather
p1204
aVgranite
p1205
aVgrapefruit
p1206
aVgrapes
p1207
aVgrass
p1208
aVgravel
p1209
aVgravy
p1210
aVgray
p1211
aVgray and red
p1212
aVgray and white
p1213
aVgrazing
p1214
aVgreen
p1215
aVgreen and blue
p1216
aVgreen and orange
p1217
aVgreen and purple
p1218
aVgreen and red
p1219
aVgreen and white
p1220
aVgreen and yellow
p1221
aVgreen beans
p1222
aVgreyhound
p1223
aVgrill
p1224
aVgrilled
p1225
aVgrilled cheese
p1226
aVgrind
p1227
aVgrizzly
p1228
aVgrocery
p1229
aVgrooming
p1230
aVground
p1231
aVguest
p1232
aVguitar
p1233
aVguitar hero
p1234
aVgun
p1235
aVguy
p1236
aVgym
p1237
aVh
aVhair
p1238
aVhair dryer
p1239
aVhaircut
p1240
aVhalf
p1241
aVhalf full
p1242
aVhalloween
p1243
aVhallway
p1244
aVham
p1245
aVham and cheese
p1246
aVhamburger
p1247
aVhammer time
p1248
aVhammock
p1249
aVhand
p1250
aVhandicap
p1251
aVhandicapped
p1252
aVhandle
p1253
aVhands
p1254
aVhanger
p1255
aVhanging
p1256
aVhanging from ceiling
p1257
aVhappiness
p1258
aVhappy
p1259
aVhappy birthday
p1260
aVharbor
p1261
aVhard
p1262
aVhardwood
p1263
aVharley
p1264
aVharley davidson
p1265
aVharness
p1266
aVharry potter
p1267
aVhat
p1268
aVhats
p1269
aVhawaii
p1270
aVhawaiian
p1271
aVhawk
p1272
aVhay
p1273
aVhazy
p1274
aVhbo
p1275
aVhe's not
p1276
aVhead
p1277
aVheadband
p1278
aVheaddress
p1279
aVheadphones
p1280
aVhealthy
p1281
aVheart
p1282
aVhearts
p1283
aVheat
p1284
aVheater
p1285
aVheavy
p1286
aVhebrew
p1287
aVheels
p1288
aVheineken
p1289
aVheinz
p1290
aVhelicopter
p1291
aVhello
p1292
aVhello kitty
p1293
aVhelmet
p1294
aVhelmets
p1295
aVherd
p1296
aVherding
p1297
aVhero
p1298
aVherself
p1299
aVhexagon
p1300
aVhiding
p1301
aVhigh
p1302
aVhigh chair
p1303
aVhigh heels
p1304
aVhighway
p1305
aVhiking
p1306
aVhill
p1307
aVhills
p1308
aVhimself
p1309
aVhit ball
p1310
aVhit tennis ball
p1311
aVhitting ball
p1312
aVhockey
p1313
aVholding it
p1314
aVholstein
p1315
aVhome
p1316
aVhome plate
p1317
aVhomemade
p1318
aVhonda
p1319
aVhoney
p1320
aVhood
p1321
aVhoodie
p1322
aVhorizontal
p1323
aVhorns
p1324
aVhorse
p1325
aVhorse racing
p1326
aVhorses
p1327
aVhose
p1328
aVhospital
p1329
aVhot
p1330
aVhot dog
p1331
aVhot dogs
p1332
aVhotel
p1333
aVhouse
p1334
aVhouses
p1335
aVhp
p1336
aVhsbc
p1337
aVhtc
p1338
aVhuge
p1339
aVhugging
p1340
aVhula hoop
p1341
aVhuman
p1342
aVhummingbird
p1343
aVhundreds
p1344
aVhungry
p1345
aVhusky
p1346
aVhydrant
p1347
aVhyundai
p1348
aVi don't know
p1349
aVibm
p1350
aVice
p1351
aVice cream
p1352
aVicing
p1353
aVidentification
p1354
aVin
p1355
aVin air
p1356
aVin back
p1357
aVin background
p1358
aVin basket
p1359
aVin bowl
p1360
aVin box
p1361
aVin bushes
p1362
aVin car
p1363
aVin corner
p1364
aVin cup
p1365
aVin dish
p1366
aVin field
p1367
aVin front
p1368
aVin glass
p1369
aVin grass
p1370
aVin her hand
p1371
aVin middle
p1372
aVin motion
p1373
aVin sky
p1374
aVin snow
p1375
aVin stands
p1376
aVin street
p1377
aVin suitcase
p1378
aVin tree
p1379
aVin vase
p1380
aVin water
p1381
aVin zoo
p1382
aVindex
p1383
aVindia
p1384
aVindian
p1385
aVindoor
p1386
aVindoors
p1387
aVinformation
p1388
aVinside
p1389
aVintersection
p1390
aViphone
p1391
aVipod
p1392
aVireland
p1393
aViris
p1394
aViron
p1395
aVironing board
p1396
aVisland
p1397
aVisuzu
p1398
aVit's not
p1399
aVit's raining
p1400
aVitalian
p1401
aVitaly
p1402
aVivory
p1403
aVivy
p1404
aVj
aVjacket
p1405
aVjackets
p1406
aVjackson
p1407
aVjalapenos
p1408
aVjapan
p1409
aVjapanese
p1410
aVjar
p1411
aVjean
p1412
aVjeans
p1413
aVjeep
p1414
aVjelly
p1415
aVjesus
p1416
aVjet
p1417
aVjet ski
p1418
aVjetblue
p1419
aVjets
p1420
aVjockey
p1421
aVjones
p1422
aVjoy
p1423
aVjp morgan
p1424
aVjuice
p1425
aVjump
p1426
aVjumped
p1427
aVjumping
p1428
aVjungle
p1429
aVjunk
p1430
aVk
aVkawasaki
p1431
aVkayak
p1432
aVkenmore
p1433
aVkennedy
p1434
aVketchup
p1435
aVketchup and mustard
p1436
aVkettle
p1437
aVkeyboard
p1438
aVkeys
p1439
aVkfc
p1440
aVkhaki
p1441
aVkia
p1442
aVkickstand
p1443
aVkid
p1444
aVkids
p1445
aVkimono
p1446
aVking
p1447
aVkingfisher
p1448
aVkissing
p1449
aVkitchen
p1450
aVkite
p1451
aVkite flying
p1452
aVkites
p1453
aVkitten
p1454
aVkiwi
p1455
aVklm
p1456
aVknee
p1457
aVknee pads
p1458
aVknife
p1459
aVknife and fork
p1460
aVknife and spoon
p1461
aVknit
p1462
aVknitting
p1463
aVknives
p1464
aVknocked over
p1465
aVkodak
p1466
aVkrispy kreme
p1467
aVl
aVlab
p1468
aVlabrador
p1469
aVlace
p1470
aVlacoste
p1471
aVladder
p1472
aVlady
p1473
aVladybug
p1474
aVlake
p1475
aVlamb
p1476
aVlamp
p1477
aVlamp post
p1478
aVlamps
p1479
aVland
p1480
aVlanding
p1481
aVlandscape
p1482
aVlantern
p1483
aVlanyard
p1484
aVlap
p1485
aVlaptop
p1486
aVlaptops
p1487
aVlarge
p1488
aVlasagna
p1489
aVlaundry
p1490
aVlava lamp
p1491
aVlaying
p1492
aVlaying down
p1493
aVlays
p1494
aVlazy
p1495
aVleaf
p1496
aVleash
p1497
aVleather
p1498
aVleaves
p1499
aVleaving
p1500
aVleft
p1501
aVleft of plate
p1502
aVleft one
p1503
aVleg
p1504
aVlego
p1505
aVlegos
p1506
aVlegs
p1507
aVlei
p1508
aVlemon
p1509
aVlemonade
p1510
aVlemons
p1511
aVleopard
p1512
aVletters
p1513
aVlettuce
p1514
aVlexus
p1515
aVlg
p1516
aVlibrary
p1517
aVlicense plate
p1518
aVlicking
p1519
aVlid
p1520
aVlife
p1521
aVlife jacket
p1522
aVlife vest
p1523
aVlifeguard
p1524
aVlift
p1525
aVlight
p1526
aVlighthouse
p1527
aVlighting
p1528
aVlights
p1529
aVlilac
p1530
aVlilacs
p1531
aVlilies
p1532
aVlily
p1533
aVlime
p1534
aVlines
p1535
aVlion
p1536
aVlistening
p1537
aVlistening to music
p1538
aVlittle
p1539
aVlittle girl
p1540
aVliving
p1541
aVliving room
p1542
aVlizard
p1543
aVloading
p1544
aVlog
p1545
aVlogitech
p1546
aVlogo
p1547
aVlogs
p1548
aVlondon
p1549
aVlong
p1550
aVlong sleeve
p1551
aVlong time
p1552
aVlooking
p1553
aVlooking down
p1554
aVlooking in fridge
p1555
aVlooking out window
p1556
aVlos angeles
p1557
aVlot
p1558
aVlotion
p1559
aVlots
p1560
aVlove
p1561
aVlow
p1562
aVlower
p1563
aVlufthansa
p1564
aVluggage
p1565
aVlunch
p1566
aVm
aVm&m's
p1567
aVmac
p1568
aVmac and cheese
p1569
aVmacaroni
p1570
aVmacaroni and cheese
p1571
aVmachine
p1572
aVmad
p1573
aVmagazine
p1574
aVmagazines
p1575
aVmagnet
p1576
aVmagnets
p1577
aVmail
p1578
aVmailbox
p1579
aVmain
p1580
aVmain street
p1581
aVmale
p1582
aVmall
p1583
aVman
p1584
aVman in front
p1585
aVman in red
p1586
aVman made
p1587
aVman on left
p1588
aVman on right
p1589
aVman's
p1590
aVmango
p1591
aVmanhole
p1592
aVmany
p1593
aVmap
p1594
aVmaple
p1595
aVmaple leaf
p1596
aVmarble
p1597
aVmarina
p1598
aVmarines
p1599
aVmario
p1600
aVmario kart
p1601
aVmark winterbourne
p1602
aVmarker
p1603
aVmarket
p1604
aVmaroon
p1605
aVmarried
p1606
aVmarshmallows
p1607
aVmask
p1608
aVmat
p1609
aVmattress
p1610
aVmayo
p1611
aVmcdonald's
p1612
aVme
p1613
aVmeat
p1614
aVmedical
p1615
aVmedicine
p1616
aVmedium
p1617
aVmelbourne
p1618
aVmelon
p1619
aVmen
p1620
aVmen's
p1621
aVmenu
p1622
aVmeow
p1623
aVmercedes
p1624
aVmercedes benz
p1625
aVmercedes-benz
p1626
aVmessy
p1627
aVmetal
p1628
aVmeter
p1629
aVmets
p1630
aVmexican
p1631
aVmexico
p1632
aVmichael jordan
p1633
aVmichigan
p1634
aVmickey mouse
p1635
aVmicrophone
p1636
aVmicrosoft
p1637
aVmicrowave
p1638
aVmiddle
p1639
aVmilitary
p1640
aVmilk
p1641
aVmilking
p1642
aVmillions
p1643
aVminnie mouse
p1644
aVmint
p1645
aVmirror
p1646
aVmirrors
p1647
aVmississippi
p1648
aVmitsubishi
p1649
aVmitt
p1650
aVmixer
p1651
aVmodel
p1652
aVmodern
p1653
aVmohawk
p1654
aVmom
p1655
aVmoney
p1656
aVmonitor
p1657
aVmonkey
p1658
aVmonopoly
p1659
aVmonster
p1660
aVmoo
p1661
aVmoon
p1662
aVmore
p1663
aVmorning
p1664
aVmosaic
p1665
aVmoss
p1666
aVmotel
p1667
aVmother
p1668
aVmother and child
p1669
aVmotion
p1670
aVmotocross
p1671
aVmotor
p1672
aVmotorbike
p1673
aVmotorcycle
p1674
aVmotorcycle show
p1675
aVmotorcycles
p1676
aVmotorola
p1677
aVmound
p1678
aVmountain
p1679
aVmountain dew
p1680
aVmountainous
p1681
aVmountains
p1682
aVmouse
p1683
aVmouse pad
p1684
aVmouth
p1685
aVmouthwash
p1686
aVmovement
p1687
aVmovie
p1688
aVmovies
p1689
aVmoving
p1690
aVmozzarella
p1691
aVmud
p1692
aVmuffin
p1693
aVmug
p1694
aVmulti
p1695
aVmulticolored
p1696
aVmuseum
p1697
aVmushroom
p1698
aVmushrooms
p1699
aVmusic
p1700
aVmustache
p1701
aVmustard
p1702
aVmutt
p1703
aVn
aVname
p1704
aVname tag
p1705
aVnapkin
p1706
aVnapkins
p1707
aVnasa
p1708
aVnathan's
p1709
aVnatural
p1710
aVnature
p1711
aVnavy
p1712
aVneck
p1713
aVnecklace
p1714
aVneither
p1715
aVneon
p1716
aVnest
p1717
aVnet
p1718
aVnever
p1719
aVnew
p1720
aVnew orleans
p1721
aVnew york
p1722
aVnew york yankees
p1723
aVnew zealand
p1724
aVnews
p1725
aVnewspaper
p1726
aVnext to toilet
p1727
aVnight
p1728
aVnightstand
p1729
aVnighttime
p1730
aVnike
p1731
aVnikon
p1732
aVnintendo
p1733
aVnissan
p1734
aVnitro
p1735
aVno
p1736
aVno entry
p1737
aVno left turn
p1738
aVno one
p1739
aVno parking
p1740
aVno room
p1741
aVno smoking
p1742
aVnobody
p1743
aVnokia
p1744
aVnone
p1745
aVnoodles
p1746
aVnoon
p1747
aVnorth
p1748
aVnorth america
p1749
aVnorth face
p1750
aVnose
p1751
aVnot at all
p1752
aVnot happy
p1753
aVnot in service
p1754
aVnot there
p1755
aVnot very
p1756
aVnotebook
p1757
aVnothing
p1758
aVnowhere
p1759
aVnursing
p1760
aVnuts
p1761
aVoak
p1762
aVoars
p1763
aVobama
p1764
aVocean
p1765
aVoctagon
p1766
aVoctopus
p1767
aVoff
p1768
aVoffice
p1769
aVoil
p1770
aVold
p1771
aVold fashioned
p1772
aVolder
p1773
aVolive
p1774
aVolives
p1775
aVollie
p1776
aVolympics
p1777
aVomelet
p1778
aVon
p1779
aVon beach
p1780
aVon bed
p1781
aVon bench
p1782
aVon bike
p1783
aVon boat
p1784
aVon bread
p1785
aVon bridge
p1786
aVon building
p1787
aVon bus
p1788
aVon cake
p1789
aVon car
p1790
aVon chair
p1791
aVon couch
p1792
aVon counter
p1793
aVon desk
p1794
aVon dog
p1795
aVon door
p1796
aVon elephant
p1797
aVon floor
p1798
aVon fridge
p1799
aVon grass
p1800
aVon ground
p1801
aVon hill
p1802
aVon his face
p1803
aVon his head
p1804
aVon horse
p1805
aVon laptop
p1806
aVon left
p1807
aVon man
p1808
aVon napkin
p1809
aVon phone
p1810
aVon plane
p1811
aVon plate
p1812
aVon pole
p1813
aVon rack
p1814
aVon refrigerator
p1815
aVon right
p1816
aVon road
p1817
aVon rock
p1818
aVon roof
p1819
aVon shelf
p1820
aVon shelves
p1821
aVon shore
p1822
aVon sidewalk
p1823
aVon sign
p1824
aVon sink
p1825
aVon skateboard
p1826
aVon stove
p1827
aVon street
p1828
aVon suitcase
p1829
aVon table
p1830
aVon toilet
p1831
aVon top
p1832
aVon tower
p1833
aVon track
p1834
aVon tracks
p1835
aVon train
p1836
aVon tray
p1837
aVon tree
p1838
aVon wall
p1839
aVon water
p1840
aVon woman
p1841
aVone in back
p1842
aVone in front
p1843
aVone in middle
p1844
aVone on left
p1845
aVone on right
p1846
aVone way
p1847
aVone world
p1848
aVonion
p1849
aVonion rings
p1850
aVonions
p1851
aVopen
p1852
aVopposite
p1853
aVorange
p1854
aVorange and black
p1855
aVorange and blue
p1856
aVorange and gray
p1857
aVorange and green
p1858
aVorange and white
p1859
aVorange and yellow
p1860
aVorange juice
p1861
aVoranges
p1862
aVoranges and bananas
p1863
aVorchid
p1864
aVorganic
p1865
aVoriental
p1866
aVorioles
p1867
aVostrich
p1868
aVout
p1869
aVout of focus
p1870
aVoutdoor
p1871
aVoutdoors
p1872
aVoutfield
p1873
aVoutside
p1874
aVoval
p1875
aVoven
p1876
aVover
p1877
aVover easy
p1878
aVoveralls
p1879
aVovercast
p1880
aVowl
p1881
aVowls
p1882
aVowner
p1883
aVox
p1884
aVoxen
p1885
aVp
aVpacific
p1886
aVpacifier
p1887
aVpackages
p1888
aVpacking
p1889
aVpaddle
p1890
aVpaddle boarding
p1891
aVpaint
p1892
aVpainted
p1893
aVpainting
p1894
aVpaintings
p1895
aVpaisley
p1896
aVpajamas
p1897
aVpalm
p1898
aVpalm tree
p1899
aVpalm trees
p1900
aVpan
p1901
aVpancake
p1902
aVpancakes
p1903
aVpanda
p1904
aVpantry
p1905
aVpants
p1906
aVpaper
p1907
aVpaper towels
p1908
aVpapers
p1909
aVparachute
p1910
aVparade
p1911
aVparakeet
p1912
aVparasail
p1913
aVparasailing
p1914
aVparent and child
p1915
aVparis
p1916
aVpark
p1917
aVparked
p1918
aVparking
p1919
aVparking lot
p1920
aVparking meter
p1921
aVparking meters
p1922
aVparmesan
p1923
aVparmesan cheese
p1924
aVparrot
p1925
aVparrots
p1926
aVparsley
p1927
aVpartly cloudy
p1928
aVparty
p1929
aVparty bus
p1930
aVpassenger
p1931
aVpassengers
p1932
aVpasta
p1933
aVpastries
p1934
aVpastry
p1935
aVpasture
p1936
aVpavement
p1937
aVpaw
p1938
aVpaw prints
p1939
aVpc
p1940
aVpeace
p1941
aVpeach
p1942
aVpeaches
p1943
aVpeacock
p1944
aVpeanut butter
p1945
aVpeanuts
p1946
aVpearl
p1947
aVpeas
p1948
aVpedestal
p1949
aVpedestrian
p1950
aVpedestrian crossing
p1951
aVpedestrians
p1952
aVpee
p1953
aVpeeing
p1954
aVpeel
p1955
aVpeeling
p1956
aVpelican
p1957
aVpelicans
p1958
aVpen
p1959
aVpencil
p1960
aVpenguin
p1961
aVpenne
p1962
aVpens
p1963
aVpeople
p1964
aVpepper
p1965
aVpepperoni
p1966
aVpeppers
p1967
aVpepsi
p1968
aVpersian
p1969
aVperson
p1970
aVperson on left
p1971
aVperspective
p1972
aVpesto
p1973
aVpet
p1974
aVpetting
p1975
aVphiladelphia
p1976
aVphilips
p1977
aVphillies
p1978
aVphone
p1979
aVphones
p1980
aVphoto
p1981
aVphotographer
p1982
aVphotography
p1983
aVpiano
p1984
aVpickle
p1985
aVpickles
p1986
aVpickup
p1987
aVpicnic
p1988
aVpicnic table
p1989
aVpicture
p1990
aVpictures
p1991
aVpie
p1992
aVpier
p1993
aVpig
p1994
aVpigeon
p1995
aVpigeons
p1996
aVpigtails
p1997
aVpillow
p1998
aVpillows
p1999
aVpilot
p2000
aVpine
p2001
aVpineapple
p2002
aVping pong
p2003
aVpink
p2004
aVpink and black
p2005
aVpink and blue
p2006
aVpink and white
p2007
aVpink and yellow
p2008
aVpipe
p2009
aVpipes
p2010
aVpirate
p2011
aVpirates
p2012
aVpitbull
p2013
aVpitch
p2014
aVpitcher
p2015
aVpitching
p2016
aVpizza
p2017
aVpizza cutter
p2018
aVpizza hut
p2019
aVplacemat
p2020
aVplaid
p2021
aVplane
p2022
aVplanes
p2023
aVplant
p2024
aVplanter
p2025
aVplants
p2026
aVplastic
p2027
aVplastic wrap
p2028
aVplate
p2029
aVplates
p2030
aVplatform
p2031
aVplay
p2032
aVplay tennis
p2033
aVplayground
p2034
aVplaying
p2035
aVplaying baseball
p2036
aVplaying frisbee
p2037
aVplaying game
p2038
aVplaying soccer
p2039
aVplaying tennis
p2040
aVplaying wii
p2041
aVplaystation
p2042
aVplow
p2043
aVplunger
p2044
aVpm
p2045
aVpocket
p2046
aVpockets
p2047
aVpointing
p2048
aVpolar
p2049
aVpolar bear
p2050
aVpolar bears
p2051
aVpolaroid
p2052
aVpole
p2053
aVpoles
p2054
aVpolice
p2055
aVpolice officer
p2056
aVpolka dot
p2057
aVpolka dots
p2058
aVpolo
p2059
aVpomegranate
p2060
aVpond
p2061
aVpony
p2062
aVponytail
p2063
aVpoodle
p2064
aVpool
p2065
aVpoor
p2066
aVporcelain
p2067
aVporch
p2068
aVpork
p2069
aVposing
p2070
aVpost
p2071
aVposter
p2072
aVposts
p2073
aVpot
p2074
aVpotato
p2075
aVpotato salad
p2076
aVpotatoes
p2077
aVpots
p2078
aVpottery
p2079
aVpowdered sugar
p2080
aVpower
p2081
aVpower lines
p2082
aVpresident
p2083
aVprince
p2084
aVprint
p2085
aVprinter
p2086
aVprivacy
p2087
aVprivate
p2088
aVproduce
p2089
aVprom
p2090
aVpropeller
p2091
aVpropellers
p2092
aVprotection
p2093
aVprotest
p2094
aVpublic
p2095
aVpuerto rico
p2096
aVpug
p2097
aVpulled pork
p2098
aVpumpkin
p2099
aVpumpkins
p2100
aVpuppy
p2101
aVpurple
p2102
aVpurple and white
p2103
aVpurse
p2104
aVqantas
p2105
aVqueen
p2106
aVquiche
p2107
aVquilt
p2108
aVr
aVrabbit
p2109
aVrace
p2110
aVracing
p2111
aVrack
p2112
aVracket
p2113
aVrackets
p2114
aVracquet
p2115
aVradiator
p2116
aVradio
p2117
aVradish
p2118
aVraft
p2119
aVrail
p2120
aVrailing
p2121
aVrailroad
p2122
aVrailroad crossing
p2123
aVrain
p2124
aVrainbow
p2125
aVraining
p2126
aVrainy
p2127
aVram
p2128
aVramp
p2129
aVranch
p2130
aVraspberries
p2131
aVraspberry
p2132
aVraw
p2133
aVrays
p2134
aVreading
p2135
aVreal
p2136
aVrear
p2137
aVrecently
p2138
aVrecessed
p2139
aVrectangle
p2140
aVred
p2141
aVred and black
p2142
aVred and blue
p2143
aVred and gray
p2144
aVred and green
p2145
aVred and silver
p2146
aVred and white
p2147
aVred and yellow
p2148
aVred bull
p2149
aVred light
p2150
aVred sox
p2151
aVred velvet
p2152
aVred white and blue
p2153
aVred white blue
p2154
aVred, white and blue
p2155
aVred, white, and blue
p2156
aVred, white, blue
p2157
aVreds
p2158
aVreebok
p2159
aVreferee
p2160
aVreflection
p2161
aVrefrigerator
p2162
aVrefrigerators
p2163
aVregular
p2164
aVreins
p2165
aVrelaxing
p2166
aVrelish
p2167
aVremote
p2168
aVremote control
p2169
aVremotes
p2170
aVresidential
p2171
aVrestaurant
p2172
aVresting
p2173
aVrhino
p2174
aVribbon
p2175
aVrice
p2176
aVride
p2177
aVriding
p2178
aVriding bike
p2179
aVriding elephant
p2180
aVriding horse
p2181
aVriding horses
p2182
aVright
p2183
aVright one
p2184
aVright side
p2185
aVring
p2186
aVring finger
p2187
aVripe
p2188
aVriver
p2189
aVroad
p2190
aVroast beef
p2191
aVrobe
p2192
aVrobin
p2193
aVrobot
p2194
aVrock
p2195
aVrocks
p2196
aVrocky
p2197
aVrodeo
p2198
aVrolex
p2199
aVroller coaster
p2200
aVromaine
p2201
aVroman
p2202
aVroman numerals
p2203
aVroof
p2204
aVrooster
p2205
aVrope
p2206
aVrose
p2207
aVroses
p2208
aVrottweiler
p2209
aVrough
p2210
aVround
p2211
aVrowing
p2212
aVroyal navy
p2213
aVrubber
p2214
aVrubber duck
p2215
aVrug
p2216
aVrugby
p2217
aVrun
p2218
aVrunning
p2219
aVrunway
p2220
aVrural
p2221
aVrussian
p2222
aVrust
p2223
aVrusty
p2224
aVrv
p2225
aVrye
p2226
aVs
aVsad
p2227
aVsaddle
p2228
aVsaddles
p2229
aVsafari
p2230
aVsafety
p2231
aVsail
p2232
aVsailboat
p2233
aVsailboats
p2234
aVsalad
p2235
aVsale
p2236
aVsalmon
p2237
aVsalon
p2238
aVsalt
p2239
aVsalt and pepper
p2240
aVsalt and pepper shakers
p2241
aVsamsung
p2242
aVsan diego
p2243
aVsan francisco
p2244
aVsand
p2245
aVsandals
p2246
aVsandwich
p2247
aVsandwiches
p2248
aVsandy
p2249
aVsanta
p2250
aVsanta fe
p2251
aVsanta hat
p2252
aVsas
p2253
aVsauce
p2254
aVsauerkraut
p2255
aVsausage
p2256
aVsavannah
p2257
aVscale
p2258
aVscared
p2259
aVscarf
p2260
aVscenery
p2261
aVschnauzer
p2262
aVschool
p2263
aVschool bus
p2264
aVscissors
p2265
aVscooter
p2266
aVscott
p2267
aVscratching
p2268
aVscreen
p2269
aVscrewdriver
p2270
aVseagull
p2271
aVseagulls
p2272
aVseat
p2273
aVseattle
p2274
aVseaweed
p2275
aVsecond
p2276
aVsecond from right
p2277
aVsecurity
p2278
aVsedan
p2279
aVseeds
p2280
aVselfie
p2281
aVselling
p2282
aVsemi
p2283
aVsepia
p2284
aVserve
p2285
aVserving
p2286
aVsesame
p2287
aVsetting
p2288
aVsewer
p2289
aVsewing
p2290
aVshade
p2291
aVshadow
p2292
aVshadows
p2293
aVshaking hands
p2294
aVshallow
p2295
aVshape
p2296
aVshark
p2297
aVshaved
p2298
aVshearing
p2299
aVshearing sheep
p2300
aVsheep
p2301
aVsheet
p2302
aVshelf
p2303
aVshell
p2304
aVshells
p2305
aVshelves
p2306
aVshepherd
p2307
aVshih tzu
p2308
aVshingles
p2309
aVship
p2310
aVshirt
p2311
aVshirts
p2312
aVshoe
p2313
aVshoes
p2314
aVshopping
p2315
aVshopping cart
p2316
aVshore
p2317
aVshort
p2318
aVshorts
p2319
aVshoulder
p2320
aVshoulder length
p2321
aVshow
p2322
aVshower
p2323
aVshower curtain
p2324
aVshrimp
p2325
aVshut
p2326
aVsiamese
p2327
aVside of road
p2328
aVsidecar
p2329
aVsidewalk
p2330
aVsideways
p2331
aVsightseeing
p2332
aVsign
p2333
aVsigns
p2334
aVsilk
p2335
aVsilver
p2336
aVsilverware
p2337
aVsinging
p2338
aVsingles
p2339
aVsink
p2340
aVsippy cup
p2341
aVsitting
p2342
aVsize
p2343
aVskate
p2344
aVskate park
p2345
aVskateboard
p2346
aVskateboard park
p2347
aVskateboarder
p2348
aVskateboarding
p2349
aVskateboards
p2350
aVskatepark
p2351
aVskating
p2352
aVskeleton
p2353
aVski
p2354
aVski lift
p2355
aVski pole
p2356
aVski poles
p2357
aVski resort
p2358
aVski slope
p2359
aVskier
p2360
aVskiers
p2361
aVskiing
p2362
aVskinny
p2363
aVskirt
p2364
aVskis
p2365
aVskull
p2366
aVskull and crossbones
p2367
aVskulls
p2368
aVsky
p2369
aVskyscrapers
p2370
aVsled
p2371
aVsledding
p2372
aVsleep
p2373
aVsleeping
p2374
aVsliced
p2375
aVsliding
p2376
aVslippers
p2377
aVslow
p2378
aVslow down
p2379
aVsmall
p2380
aVsmaller
p2381
aVsmartphone
p2382
aVsmile
p2383
aVsmiley face
p2384
aVsmiling
p2385
aVsmoke
p2386
aVsmoking
p2387
aVsmooth
p2388
aVsmoothie
p2389
aVsneakers
p2390
aVsniffing
p2391
aVsnoopy
p2392
aVsnow
p2393
aVsnowbird
p2394
aVsnowboard
p2395
aVsnowboarder
p2396
aVsnowboarding
p2397
aVsnowboards
p2398
aVsnowflakes
p2399
aVsnowing
p2400
aVsnowsuit
p2401
aVsnowy
p2402
aVsoap
p2403
aVsoccer
p2404
aVsoccer ball
p2405
aVsocks
p2406
aVsoda
p2407
aVsoft
p2408
aVsoftball
p2409
aVsoldier
p2410
aVsoldiers
p2411
aVsombrero
p2412
aVsome
p2413
aVsony
p2414
aVsony ericsson
p2415
aVsoon
p2416
aVsoup
p2417
aVsouth
p2418
aVsouthwest
p2419
aVspace
p2420
aVspace needle
p2421
aVspace shuttle
p2422
aVspaghetti
p2423
aVspanish
p2424
aVsparrow
p2425
aVspatula
p2426
aVspeaker
p2427
aVspeakers
p2428
aVspeaking
p2429
aVspectators
p2430
aVspices
p2431
aVspider
p2432
aVspiderman
p2433
aVspinach
p2434
aVspiral
p2435
aVspoon
p2436
aVspoons
p2437
aVsports
p2438
aVspot
p2439
aVspotted
p2440
aVspray paint
p2441
aVspring
p2442
aVsprinkles
p2443
aVsprite
p2444
aVsquare
p2445
aVsquares
p2446
aVsquash
p2447
aVsquatting
p2448
aVsquirrel
p2449
aVst patrick's day
p2450
aVstadium
p2451
aVstagecoach
p2452
aVstained
p2453
aVstained glass
p2454
aVstainless steel
p2455
aVstairs
p2456
aVstand
p2457
aVstanding
p2458
aVstands
p2459
aVstaples
p2460
aVstar
p2461
aVstarbucks
p2462
aVstars
p2463
aVstate farm
p2464
aVstation
p2465
aVstatue
p2466
aVstatue of liberty
p2467
aVstatues
p2468
aVsteak
p2469
aVsteam
p2470
aVsteamed
p2471
aVsteel
p2472
aVsteering wheel
p2473
aVstem
p2474
aVsteps
p2475
aVstick
p2476
aVsticker
p2477
aVstickers
p2478
aVstill
p2479
aVstir fry
p2480
aVstone
p2481
aVstones
p2482
aVstool
p2483
aVstop
p2484
aVstop sign
p2485
aVstopped
p2486
aVstopping
p2487
aVstorage
p2488
aVstore
p2489
aVstork
p2490
aVstove
p2491
aVstraight
p2492
aVstrap
p2493
aVstraw
p2494
aVstrawberries
p2495
aVstrawberry
p2496
aVstreet
p2497
aVstreet light
p2498
aVstreet lights
p2499
aVstreet sign
p2500
aVstretching
p2501
aVstrike
p2502
aVstring
p2503
aVstripe
p2504
aVstriped
p2505
aVstripes
p2506
aVstroller
p2507
aVstudents
p2508
aVstuffed
p2509
aVstuffed animal
p2510
aVstuffed animals
p2511
aVstyrofoam
p2512
aVsub
p2513
aVsuburban
p2514
aVsubway
p2515
aVsugar
p2516
aVsuit
p2517
aVsuitcase
p2518
aVsuitcases
p2519
aVsuits
p2520
aVsummer
p2521
aVsun
p2522
aVsun hat
p2523
aVsunbathing
p2524
aVsunflower
p2525
aVsunflowers
p2526
aVsunglasses
p2527
aVsunlight
p2528
aVsunny
p2529
aVsunny side up
p2530
aVsunset
p2531
aVsupreme
p2532
aVsurf
p2533
aVsurfboard
p2534
aVsurfboards
p2535
aVsurfer
p2536
aVsurfers
p2537
aVsurfing
p2538
aVsurprise
p2539
aVsurprised
p2540
aVsushi
p2541
aVsuspenders
p2542
aVsuv
p2543
aVsuzuki
p2544
aVswan
p2545
aVswans
p2546
aVsweat
p2547
aVsweatband
p2548
aVsweater
p2549
aVsweatshirt
p2550
aVsweet
p2551
aVsweet potato
p2552
aVswimming
p2553
aVswing
p2554
aVswinging
p2555
aVsword
p2556
aVsyrup
p2557
aVt
aVt mobile
p2558
aVt-shirt
p2559
aVtabasco
p2560
aVtabby
p2561
aVtable
p2562
aVtablecloth
p2563
aVtablet
p2564
aVtag
p2565
aVtags
p2566
aVtail
p2567
aVtail lights
p2568
aVtake off
p2569
aVtaking off
p2570
aVtaking picture
p2571
aVtaking pictures
p2572
aVtaking selfie
p2573
aVtalking
p2574
aVtalking on cell phone
p2575
aVtalking on phone
p2576
aVtall
p2577
aVtaller
p2578
aVtan
p2579
aVtank
p2580
aVtank top
p2581
aVtape
p2582
aVtape measure
p2583
aVtarget
p2584
aVtarp
p2585
aVtater tots
p2586
aVtattoo
p2587
aVtattoos
p2588
aVtaxi
p2589
aVtea
p2590
aVtea kettle
p2591
aVteam
p2592
aVteddy
p2593
aVteddy bear
p2594
aVteddy bears
p2595
aVteddy roosevelt
p2596
aVteenager
p2597
aVteeth
p2598
aVtelephone
p2599
aVtelevision
p2600
aVtell time
p2601
aVtelling time
p2602
aVtennis
p2603
aVtennis ball
p2604
aVtennis balls
p2605
aVtennis court
p2606
aVtennis player
p2607
aVtennis racket
p2608
aVtennis rackets
p2609
aVtennis racquet
p2610
aVtennis shoes
p2611
aVtent
p2612
aVtents
p2613
aVterrier
p2614
aVtexas
p2615
aVtexting
p2616
aVthai
p2617
aVthailand
p2618
aVthames
p2619
aVthanksgiving
p2620
aVthe
p2621
aVtheater
p2622
aVthick
p2623
aVthin
p2624
aVthomas
p2625
aVthrow
p2626
aVthrow ball
p2627
aVthrow frisbee
p2628
aVthrowing
p2629
aVthrowing frisbee
p2630
aVthumb
p2631
aVthumbs up
p2632
aVtiara
p2633
aVtie
p2634
aVtie dye
p2635
aVties
p2636
aVtiger
p2637
aVtigers
p2638
aVtile
p2639
aVtiled
p2640
aVtiles
p2641
aVtime
p2642
aVtire
p2643
aVtired
p2644
aVtires
p2645
aVtissue
p2646
aVtissues
p2647
aVto catch ball
p2648
aVto catch frisbee
p2649
aVto dry
p2650
aVto eat
p2651
aVto get to other side
p2652
aVto hold it together
p2653
aVto left
p2654
aVto right
p2655
aVto see
p2656
aVto sit on
p2657
aVto station
p2658
aVtoast
p2659
aVtoaster
p2660
aVtoaster oven
p2661
aVtoddler
p2662
aVtoilet
p2663
aVtoilet brush
p2664
aVtoilet paper
p2665
aVtoiletries
p2666
aVtoilets
p2667
aVtokyo
p2668
aVtomato
p2669
aVtomatoes
p2670
aVtongs
p2671
aVtongue
p2672
aVtools
p2673
aVtoothbrush
p2674
aVtoothbrushes
p2675
aVtoothpaste
p2676
aVtoothpick
p2677
aVtoothpicks
p2678
aVtop
p2679
aVtop hat
p2680
aVtop left
p2681
aVtop right
p2682
aVtoronto
p2683
aVtortilla
p2684
aVtoshiba
p2685
aVtour
p2686
aVtow truck
p2687
aVtoward
p2688
aVtowards
p2689
aVtowel
p2690
aVtowels
p2691
aVtower
p2692
aVtowing
p2693
aVtown
p2694
aVtoy
p2695
aVtoyota
p2696
aVtoys
p2697
aVtrack
p2698
aVtracks
p2699
aVtractor
p2700
aVtraffic
p2701
aVtraffic light
p2702
aVtraffic lights
p2703
aVtrailer
p2704
aVtrain
p2705
aVtrain car
p2706
aVtrain crossing
p2707
aVtrain station
p2708
aVtrain tracks
p2709
aVtrains
p2710
aVtransparent
p2711
aVtransportation
p2712
aVtrash
p2713
aVtrash can
p2714
aVtravel
p2715
aVtraveling
p2716
aVtray
p2717
aVtree
p2718
aVtree branch
p2719
aVtrees
p2720
aVtriangle
p2721
aVtriangles
p2722
aVtrick
p2723
aVtricks
p2724
aVtricycle
p2725
aVtripod
p2726
aVtrolley
p2727
aVtrophy
p2728
aVtropical
p2729
aVtropicana
p2730
aVtruck
p2731
aVtrucks
p2732
aVtrunk
p2733
aVtrunks
p2734
aVtub
p2735
aVtugboat
p2736
aVtulips
p2737
aVtuna
p2738
aVtunnel
p2739
aVturkey
p2740
aVturn right
p2741
aVturning
p2742
aVturquoise
p2743
aVturtle
p2744
aVtusk
p2745
aVtusks
p2746
aVtv
p2747
aVtwin
p2748
aVtwins
p2749
aVty
p2750
aVtying tie
p2751
aVtyping
p2752
aVu haul
p2753
aVu turn
p2754
aVuk
p2755
aVumbrella
p2756
aVumbrellas
p2757
aVumpire
p2758
aVunder
p2759
aVunder armour
p2760
aVunder cat
p2761
aVunder counter
p2762
aVunder sink
p2763
aVunder table
p2764
aVuniform
p2765
aVuniforms
p2766
aVunion pacific
p2767
aVunited
p2768
aVunited kingdom
p2769
aVunited states
p2770
aVunknown
p2771
aVunsure
p2772
aVup
p2773
aVuphill
p2774
aVups
p2775
aVupside down
p2776
aVurban
p2777
aVurinal
p2778
aVus
p2779
aVus air force
p2780
aVus airways
p2781
aVus airways express
p2782
aVus open
p2783
aVusa
p2784
aVuse toilet
p2785
aVusing laptop
p2786
aVutensils
p2787
aVv
aVvacation
p2788
aVvacuum
p2789
aVvalentine's day
p2790
aVvan
p2791
aVvanilla
p2792
aVvans
p2793
aVvase
p2794
aVvases
p2795
aVvegetable
p2796
aVvegetables
p2797
aVvegetarian
p2798
aVveggie
p2799
aVveil
p2800
aVvelvet
p2801
aVvenice
p2802
aVvent
p2803
aVverizon
p2804
aVvertical
p2805
aVvery
p2806
aVvery big
p2807
aVvery fast
p2808
aVvery high
p2809
aVvery long
p2810
aVvery old
p2811
aVvery tall
p2812
aVvest
p2813
aVvests
p2814
aVvictoria
p2815
aVvictorian
p2816
aVvideo game
p2817
aVvietnam
p2818
aVvines
p2819
aVvirgin
p2820
aVvisibility
p2821
aVvisor
p2822
aVvitamin water
p2823
aVvodka
p2824
aVvolkswagen
p2825
aVvolleyball
p2826
aVvolvo
p2827
aVvultures
p2828
aVvw
p2829
aVw
aVwagon
p2830
aVwaiting
p2831
aVwalk
p2832
aVwalking
p2833
aVwall
p2834
aVwallet
p2835
aVwallpaper
p2836
aVwar
p2837
aVwarm
p2838
aVwarning
p2839
aVwasher
p2840
aVwashing
p2841
aVwashing machine
p2842
aVwashington
p2843
aVwashington dc
p2844
aVwashington monument
p2845
aVwatch
p2846
aVwatching
p2847
aVwatching tv
p2848
aVwater
p2849
aVwater bottle
p2850
aVwater fountain
p2851
aVwater ski
p2852
aVwater skiing
p2853
aVwater tower
p2854
aVwatermark
p2855
aVwatermelon
p2856
aVwave
p2857
aVwaves
p2858
aVwaving
p2859
aVwavy
p2860
aVwax
p2861
aVweather vane
p2862
aVwebsite
p2863
aVwedding
p2864
aVweeds
p2865
aVwelcome
p2866
aVwest
p2867
aVwestin
p2868
aVwestminster
p2869
aVwet
p2870
aVwetsuit
p2871
aVwetsuits
p2872
aVwhale
p2873
aVwheat
p2874
aVwheel
p2875
aVwheelchair
p2876
aVwheelie
p2877
aVwheels
p2878
aVwhipped cream
p2879
aVwhite
p2880
aVwhite and black
p2881
aVwhite and blue
p2882
aVwhite and brown
p2883
aVwhite and gray
p2884
aVwhite and green
p2885
aVwhite and orange
p2886
aVwhite and pink
p2887
aVwhite and red
p2888
aVwhite and yellow
p2889
aVwhite sox
p2890
aVwhite with black stripes
p2891
aVwicker
p2892
aVwii
p2893
aVwii controller
p2894
aVwii controllers
p2895
aVwii remote
p2896
aVwii remotes
p2897
aVwild
p2898
aVwildcats
p2899
aVwildebeest
p2900
aVwillow
p2901
aVwilson
p2902
aVwind
p2903
aVwindmill
p2904
aVwindow
p2905
aVwindow sill
p2906
aVwindows
p2907
aVwindowsill
p2908
aVwindsor
p2909
aVwindsurfing
p2910
aVwindy
p2911
aVwine
p2912
aVwine bottle
p2913
aVwine glass
p2914
aVwine glasses
p2915
aVwine tasting
p2916
aVwing
p2917
aVwings
p2918
aVwinnie pooh
p2919
aVwinter
p2920
aVwire
p2921
aVwired
p2922
aVwireless
p2923
aVwires
p2924
aVwolf
p2925
aVwoman
p2926
aVwoman on left
p2927
aVwoman's
p2928
aVwomen
p2929
aVwomen's
p2930
aVwood
p2931
aVwooden
p2932
aVwoods
p2933
aVwool
p2934
aVword
p2935
aVwords
p2936
aVwork
p2937
aVworking
p2938
aVworld
p2939
aVworms
p2940
aVwreath
p2941
aVwrench
p2942
aVwrist
p2943
aVwristband
p2944
aVwriting
p2945
aVx
aVxbox
p2946
aVy
aVyahoo
p2947
aVyak
p2948
aVyamaha
p2949
aVyankees
p2950
aVyarn
p2951
aVyellow
p2952
aVyellow and black
p2953
aVyellow and blue
p2954
aVyellow and green
p2955
aVyellow and orange
p2956
aVyellow and pink
p2957
aVyellow and red
p2958
aVyellow and white
p2959
aVyes
p2960
aVyield
p2961
aVyogurt
p2962
aVyorkie
p2963
aVyoung
p2964
aVzebra
p2965
aVzebras
p2966
aVzig zag
p2967
aVzipper
p2968
aVzoo
p2969
aVzucchini
p2970
a.