(dp1
V344
p2
Vhot dogs
p3
sV345
p4
Vgoggles
p5
sV346
p6
Vyoung
p7
sV347
p8
Vtexting
p9
sV340
p10
Vdessert
p11
sV341
p12
Vcanada
p13
sV342
p14
Vbears
p15
sV343
p16
Vriver
p17
sV2918
p18
Vhard boiled
p19
sV348
p20
Vhotel
p21
sV349
p22
Vglove
p23
sV2919
p24
Vhanging from ceiling
p25
sV1653
p26
Vresidential
p27
sV2318
p28
Vsub
p29
sV2319
p30
Vstuffed
p31
sV2316
p32
Vsunny side up
p33
sV2317
p34
Vsun hat
p35
sV2314
p36
Vsweat
p37
sV2315
p38
Vsuzuki
p39
sV2312
p40
Vtaller
p41
sV2313
p42
Vsweet potato
p43
sV2310
p44
Vtea kettle
p45
sV2311
p46
Vtape measure
p47
sV298
p48
Vbridge
p49
sV299
p50
Vshadow
p51
sV296
p52
Vpitcher
p53
sV297
p54
Vclosed
p55
sV294
p56
Vbox
p57
sV295
p58
Vbag
p59
sV292
p60
Vlight
p61
sV293
p62
Vflower
p63
sV290
p64
Vperson
p65
sV291
p66
Von
p67
sV2147
p68
Vfried
p69
sV270
p70
Vlondon
p71
sV271
p72
Vcoca cola
p73
sV272
p74
Vcircle
p75
sV273
p76
Vbooks
p77
sV274
p78
V30
p79
sV275
p80
Vheart
p81
sV276
p82
Vfloral
p83
sV277
p84
Vcheckered
p85
sV278
p86
Vvegetables
p87
sV279
p88
Vracket
p89
sV1780
p90
V1:30
p91
sV2146
p92
Vfrisbee golf
p93
sV2268
p94
Vwhipped cream
p95
sV2269
p96
Vwheelie
p97
sV2262
p98
Vworld
p99
sV2263
p100
Vword
p101
sV2260
p102
Vwreath
p103
sV2261
p104
Vworms
p105
sV2266
p106
Vwine bottle
p107
sV2267
p108
Vwhite sox
p109
sV2264
p110
Vwings
p111
sV2265
p112
Vwing
p113
sV2442
p114
Vlamps
p115
sV2443
p116
Vknocked over
p117
sV2440
p118
Vlazy
p119
sV2441
p120
Vlava lamp
p121
sV1781
p122
V1:20
p123
sV2447
p124
Vkennedy
p125
sV2444
p126
Vkingfisher
p127
sV2445
p128
Vkimono
p129
sV2448
p130
Vkenmore
p131
sV2449
p132
Vkawasaki
p133
sV2189
p134
Vcaptive
p135
sV108
p136
Vzoo
p137
sV109
p138
Vtree
p139
sV102
p140
Vbat
p141
sV103
p142
Vbird
p143
sV100
p144
Vairport
p145
sV101
p146
Voutside
p147
sV106
p148
Vbed
p149
sV107
p150
Vchristmas
p151
sV104
p152
Vdonut
p153
sV105
p154
Vcloudy
p155
sV2046
p156
Vscratching
p157
sV2047
p158
Vscared
p159
sV2044
p160
Vsemi
p161
sV2045
p162
Vsecond
p163
sV2042
p164
Vsightseeing
p165
sV2043
p166
Vshoulder
p167
sV2040
p168
Vsliding
p169
sV2041
p170
Vskinny
p171
sV2048
p172
Vsauerkraut
p173
sV2049
p174
Vsandy
p175
sV1372
p176
Vshell
p177
sV2737
p178
Vseafood
p179
sV2038
p180
Vsnoopy
p181
sV2836
p182
Vnature
p183
sV1001
p184
Vbuildings
p185
sV1210
p186
Vmom
p187
sV1375
p188
Vrooster
p189
sV2688
p190
Vthrow
p191
sV2689
p192
Vthousands
p193
sV2684
p194
Vto keep people out
p195
sV2685
p196
Vto hold it together
p197
sV2686
p198
Vtin
p199
sV2687
p200
Vticket
p201
sV2680
p202
Vtriangles
p203
sV1655
p204
Vreds
p205
sV2682
p206
Vtrain crossing
p207
sV2683
p208
Vtourist
p209
sV1374
p210
Vrussian
p211
sV99
p212
Vcamera
p213
sV98
p214
Vstanding
p215
sV91
p216
Vhelmet
p217
sV90
p218
Vtrees
p219
sV93
p220
Vfence
p221
sV92
p222
Vnight
p223
sV95
p224
Vdown
p225
sV94
p226
Vteddy bear
p227
sV97
p228
Vtan
p229
sV96
p230
Vtile
p231
sV1623
p232
Vtheater
p233
sV1622
p234
Vthick
p235
sV1621
p236
Vthrowing frisbee
p237
sV1620
p238
Vto see
p239
sV1627
p240
Vsweatband
p241
sV1626
p242
Vt-shirt
p243
sV1625
p244
Vtake off
p245
sV1624
p246
Vtelephone
p247
sV1999
p248
Vwax
p249
sV1998
p250
Vwebsite
p251
sV1629
p252
Vstones
p253
sV1377
p254
Vrelish
p255
sV2860
p256
Vman made
p257
sV2861
p258
Vman in red
p259
sV2862
p260
Vman in front
p261
sV2863
p262
Vmade
p263
sV559
p264
Vduck
p265
sV558
p266
Vdunkin donuts
p267
sV2866
p268
Vmac and cheese
p269
sV2867
p270
Vlost
p271
sV555
p272
Voutdoors
p273
sV554
p274
Vreflection
p275
sV557
p276
Vford
p277
sV556
p278
Voff
p279
sV551
p280
V2 feet
p281
sV550
p282
Vasia
p283
sV553
p284
Vsoda
p285
sV552
p286
Vtower
p287
sV2744
p288
Vsalon
p289
sV1439
p290
Vcoaster
p291
sV1199
p292
Vsaddle
p293
sV1198
p294
Vscreen
p295
sV1191
p296
Vtow truck
p297
sV1190
p298
Vtrailer
p299
sV1193
p300
Vthumbs up
p301
sV1192
p302
Vtime
p303
sV1195
p304
Vstickers
p305
sV1194
p306
Vtablecloth
p307
sV1197
p308
Vsliced
p309
sV1196
p310
Vsquares
p311
sV1759
p312
Vbraid
p313
sV1758
p314
Vbroke
p315
sV1757
p316
Vbrushing his teeth
p317
sV1756
p318
Vbuffalo
p319
sV1755
p320
Vbus station
p321
sV1754
p322
Vcanon
p323
sV1753
p324
Vcap
p325
sV1752
p326
Vcase
p327
sV1751
p328
Vcatch ball
p329
sV1750
p330
Vchase
p331
sV1177
p332
Vblue and black
p333
sV1176
p334
Vbottles
p335
sV1175
p336
Vbowtie
p337
sV1174
p338
Vbunk
p339
sV1173
p340
Vconstruction
p341
sV1172
p342
Vdad
p343
sV1171
p344
Vdowntown
p345
sV1170
p346
Vdrink
p347
sV1179
p348
Vbathtub
p349
sV1178
p350
Vblack and gray
p351
sV511
p352
Vheadphones
p353
sV2964
p354
Vdrying hair
p355
sV510
p356
Vone way
p357
sV513
p358
Vstrawberry
p359
sV1285
p360
Vride
p361
sV1284
p362
Vrobe
p363
sV1287
p364
Vpower
p365
sV512
p366
Vbalance
p367
sV1281
p368
Vsepia
p369
sV1280
p370
Vshepherd
p371
sV1283
p372
Vrodeo
p373
sV1282
p374
Vs
sV1003
p375
Vblue and red
p376
sV879
p377
Vsoccer ball
p378
sV1289
p379
Vpocket
p380
sV1288
p381
Vporcelain
p382
sV514
p383
Vsteel
p384
sV1579
p385
Vbats
p386
sV1578
p387
Vblack and orange
p388
sV689
p389
Vlog
p390
sV688
p391
Von grass
p392
sV685
p393
Vsailboat
p394
sV684
p395
Vsprinkles
p396
sV687
p397
Von right
p398
sV686
p399
Vparsley
p400
sV681
p401
Vtattoo
p402
sV680
p403
Vunited
p404
sV683
p405
Vstarbucks
p406
sV682
p407
Vstatue
p408
sV458
p409
Vparking
p410
sV1226
p411
Vg
sV621
p412
V27
p413
sV873
p414
Vwave
p415
sV1224
p416
Vgolf
p417
sV1223
p418
Vgoose
p419
sV1222
p420
Vhamburger
p421
sV2741
p422
Vsaucer
p423
sV1221
p424
Vhappiness
p425
sV2740
p426
Vscenery
p427
sV1220
p428
Vherding
p429
sV2743
p430
Vsamuel adams
p431
sV407
p432
Vtennis court
p433
sV406
p434
Vtomatoes
p435
sV405
p436
Vbottom
p437
sV404
p438
Vcutting board
p439
sV403
p440
Vdecoration
p441
sV402
p442
Vtabby
p443
sV401
p444
Vbranch
p445
sV400
p446
Vflying
p447
sV1379
p448
Vred, white, blue
p449
sV1378
p450
Vreins
p451
sV1342
p452
Valuminum
p453
sV409
p454
Vsteam
p455
sV408
p456
Vtaking off
p457
sV453
p458
Vschool
p459
sV2747
p460
Vryanair
p461
sV454
p462
Vsamsung
p463
sV2148
p464
Vfreight
p465
sV455
p466
Vprotection
p467
sV2749
p468
Vrubber duck
p469
sV1346
p470
V5 feet
p471
sV2748
p472
Vrusty
p473
sV1347
p474
V37
p475
sV379
p476
Vwindows
p477
sV378
p478
Vbeige
p479
sV371
p480
Vred and yellow
p481
sV370
p482
Vrose
p483
sV373
p484
Vplant
p485
sV372
p486
Vrectangle
p487
sV375
p488
Voffice
p489
sV374
p490
Volives
p491
sV377
p492
Velectricity
p493
sV376
p494
Vhome
p495
sV2295
p496
Vtrolley
p497
sV393
p498
Vsmoke
p499
sV392
p500
Vstop sign
p501
sV391
p502
Vtennis ball
p503
sV390
p504
Vtop
p505
sV397
p506
Von ground
p507
sV396
p508
Vsign
p509
sV395
p510
Vsky
p511
sV394
p512
Vwind
p513
sV399
p514
Vhelmets
p515
sV398
p516
Vjacket
p517
sV895
p518
Vfinch
p519
sV2309
p520
Vtelling time
p521
sV2308
p522
Vtennis balls
p523
sV2301
p524
Vtoddler
p525
sV2300
p526
Vtokyo
p527
sV2303
p528
Vto sit on
p529
sV2302
p530
Vto station
p531
sV2305
p532
Vtiled
p533
sV2304
p534
Vto get to other side
p535
sV2307
p536
Vthames
p537
sV2306
p538
Vtiara
p539
sV2746
p540
Vsaddles
p541
sV245
p542
Vcarrot
p543
sV244
p544
Vconcrete
p545
sV247
p546
Vmotorcycles
p547
sV246
p548
V16
p549
sV241
p550
Vsafety
p551
sV240
p552
Vsidewalk
p553
sV243
p554
Vhay
p555
sV242
p556
Vleaves
p557
sV249
p558
Vamerican
p559
sV248
p560
Vbicycle
p561
sV2275
p562
Vvitamin water
p563
sV2274
p564
Vvultures
p565
sV2277
p566
Vvietnam
p567
sV2276
p568
Vvirgin
p569
sV2271
p570
Vwater tower
p571
sV2270
p572
Vwatermark
p573
sV2273
p574
Vwasher
p575
sV2272
p576
Vwater ski
p577
sV2279
p578
Vvery fast
p579
sV2278
p580
Vvery long
p581
sV2337
p582
Vskulls
p583
sV2198
p584
Vblue team
p585
sV2459
p586
Vin suitcase
p587
sV2458
p588
Vintersection
p589
sV2455
p590
Visland
p591
sV2454
p592
Vivory
p593
sV2457
p594
Vireland
p595
sV2456
p596
Viris
p597
sV2451
p598
Vjean
p599
sV2450
p600
Vjp morgan
p601
sV2453
p602
Vj
sV2452
p603
Vjar
p604
sV179
p605
Vboy
p606
sV178
p607
Vknife
p608
sV177
p609
Vwetsuit
p610
sV176
p611
Vwedding
p612
sV175
p613
Vski poles
p614
sV174
p615
Vnothing
p616
sV173
p617
Vcooking
p618
sV172
p619
V25
p620
sV171
p621
Vsnowboard
p622
sV170
p623
Vplaid
p624
sV2051
p625
Vrough
p626
sV1502
p627
Vrowing
p628
sV2053
p629
Vrobot
p630
sV2052
p631
Vrolex
p632
sV2055
p633
Vriding horse
p634
sV2054
p635
Vright side
p636
sV2057
p637
Vred, white and blue
p638
sV1503
p639
Vriding bike
p640
sV2059
p641
Vrear
p642
sV2058
p643
Vrecently
p644
sV1500
p645
Vscale
p646
sV1501
p647
Vsailboats
p648
sV1506
p649
Vraw
p650
sV2968
p651
Vdrill
p652
sV1507
p653
Vram
p654
sV1367
p655
Vspray paint
p656
sV1504
p657
Vreferee
p658
sV1505
p659
Vred, white, and blue
p660
sV2157
p661
Vfirefighter
p662
sV1227
p663
Vformal
p664
sV1977
p665
V4:35
p666
sV2699
p667
Vtank
p668
sV1976
p669
V51
p670
sV2697
p671
Vtarmac
p672
sV2696
p673
Vtater tots
p674
sV2695
p675
Vteam
p676
sV659
p677
Vteddy bears
p678
sV2693
p679
Vteenager
p680
sV1975
p681
V5:05
p682
sV2691
p683
Vthailand
p684
sV2690
p685
Vthe
p686
sV2405
p687
Von cake
p688
sV1974
p689
V65
p690
sV1973
p691
V9:05
p692
sV1972
p693
V9:45
p694
sV1971
p695
Vafrican american
p696
sV1970
p697
Vambulance
p698
sV1968
p699
Varound neck
p700
sV1969
p701
Vangels
p702
sV1618
p703
Vtop hat
p704
sV1619
p705
Vtongs
p706
sV1616
p707
Vtropicana
p708
sV1617
p709
Vtrack
p710
sV1614
p711
Vturning
p712
sV1615
p713
Vtrunks
p714
sV1612
p715
Vupside down
p716
sV1613
p717
Vu haul
p718
sV1610
p719
Vweather vane
p720
sV1611
p721
Vvery high
p722
sV1985
p723
V1:00
p724
sV2873
p725
Vlinoleum
p726
sV2872
p727
Vlistening
p728
sV2871
p729
Vliving
p730
sV2870
p731
Vlooking at camera
p732
sV2877
p733
Vleft of plate
p734
sV2876
p735
Vlemonade
p736
sV2875
p737
Vlife
p738
sV2542
p739
Vcello
p740
sV2879
p741
Vlantern
p742
sV2878
p743
Vlasagna
p744
sV2544
p745
Vcat in hat
p746
sV1768
p747
Vamtrak
p748
sV1769
p749
Vair france
p750
sV1762
p751
Vblue jay
p752
sV1763
p753
Vblackberry
p754
sV1760
p755
Vbookshelf
p756
sV1761
p757
Vblueberries
p758
sV1766
p759
Varriving
p760
sV1767
p761
Vapartments
p762
sV1764
p763
Vbase
p764
sV1765
p765
Vbanana peel
p766
sV1142
p767
Vpool
p768
sV1143
p769
Vpm
p770
sV1140
p771
Vribbon
p772
sV1141
p773
Vrabbit
p774
sV1146
p775
Vpicnic
p776
sV1147
p777
Vphillies
p778
sV1144
p779
Vpink and white
p780
sV1145
p781
Vpie
p782
sV1148
p783
Vpassengers
p784
sV1149
p785
Vpancakes
p786
sV2967
p787
Vdriver
p788
sV2966
p789
Vdryer
p790
sV2402
p791
Von rack
p792
sV692
p793
Vgo
p794
sV693
p795
Vgiants
p796
sV690
p797
Vi don't know
p798
sV691
p799
Vhello kitty
p800
sV696
p801
Vfast
p802
sV697
p803
Veagle
p804
sV694
p805
Vgame
p806
sV695
p807
Vfrench
p808
sV698
p809
Vchildren
p810
sV699
p811
Vcell phones
p812
sV1548
p813
Vfly kite
p814
sV1549
p815
Vflip phone
p816
sV542
p817
Vjapan
p818
sV543
p819
Vhydrant
p820
sV540
p821
Von sidewalk
p822
sV541
p823
Vmercedes
p824
sV546
p825
Vdirty
p826
sV547
p827
Vcutting
p828
sV544
p829
Vgranite
p830
sV545
p831
Vgerman
p832
sV548
p833
Vcollie
p834
sV549
p835
Vcarriage
p836
sV1782
p837
V11:30
p838
sV1783
p839
V10:35
p840
sV1784
p841
Vyogurt
p842
sV1785
p843
Vxbox
p844
sV1786
p845
Vwoman on left
p846
sV2388
p847
Vparmesan
p848
sV1787
p849
Vwireless
p850
sV414
p851
Vcup
p852
sV415
p853
Vbasket
p854
sV416
p855
Vshort
p856
sV417
p857
Vlemon
p858
sV410
p859
Vstainless steel
p860
sV411
p861
Vsneakers
p862
sV412
p863
Vrug
p864
sV413
p865
Vlettuce
p866
sV1384
p867
Vpottery
p868
sV1385
p869
Vpavement
p870
sV1386
p871
Vpastries
p872
sV1387
p873
Vpalm trees
p874
sV418
p875
Vjet
p876
sV419
p877
Vindoors
p878
sV1382
p879
Vpumpkin
p880
sV1383
p881
Vpowdered sugar
p882
sV2446
p883
Vkhaki
p884
sV2438
p885
Vlift
p886
sV368
p887
Vtracks
p888
sV369
p889
Vshirt
p890
sV366
p891
Vcounter
p892
sV367
p893
Vcars
p894
sV364
p895
Voven
p896
sV365
p897
Vmouse
p898
sV362
p899
Vplaying
p900
sV363
p901
Vphotographer
p902
sV360
p903
Vtrain station
p904
sV361
p905
Vsoup
p906
sV2760
p907
Vqueen elizabeth
p908
sV380
p909
Vseagull
p910
sV381
p911
Vred and blue
p912
sV382
p913
Vguitar
p914
sV383
p915
Vgloves
p916
sV384
p917
Vstar
p918
sV385
p919
Vspinach
p920
sV386
p921
Vshade
p922
sV387
p923
Vnoon
p924
sV388
p925
Vlarge
p926
sV389
p927
Vdelta
p928
sV2792
p929
Vparliament
p930
sV2190
p931
Vcamera flash
p932
sV2191
p933
Vcalzone
p934
sV258
p935
Vwii remote
p936
sV259
p937
Vplaying tennis
p938
sV2194
p939
Vburton
p940
sV2195
p941
Vbump
p942
sV2196
p943
Vbulls
p944
sV2197
p945
Vbrushing hair
p946
sV252
p947
Vchild
p948
sV253
p949
Vumbrellas
p950
sV250
p951
Vnone
p952
sV251
p953
Vin water
p954
sV256
p955
Vgiraffes
p956
sV257
p957
Vfield
p958
sV254
p959
Vovercast
p960
sV255
p961
Vgold
p962
sV2200
p963
Vbenches
p964
sV2201
p965
Vbehind clouds
p966
sV2202
p967
Vbehind bench
p968
sV2203
p969
Vbeets
p970
sV2204
p971
Vbeanie
p972
sV2205
p973
Vbaskets
p974
sV2206
p975
Vbaseball player
p976
sV2207
p977
Vbaltimore
p978
sV2208
p979
Vballoons
p980
sV2209
p981
Vbaker
p982
sV1679
p983
Von road
p984
sV2428
p985
Vmarina
p986
sV2429
p987
Vmanhole
p988
sV2400
p989
Von shore
p990
sV2420
p991
Vmirrors
p992
sV2421
p993
Vminnie mouse
p994
sV2422
p995
Vmets
p996
sV2423
p997
Vmeter
p998
sV2424
p999
Vmelon
p1000
sV1849
p1001
Vplow
p1002
sV2426
p1003
Vmarshmallows
p1004
sV2427
p1005
Vmarines
p1006
sV2432
p1007
Vmad
p1008
sV1848
p1009
Vpolar bears
p1010
sV168
p1011
Vblue and white
p1012
sV169
p1013
Vtoilet
p1014
sV164
p1015
Vusa
p1016
sV165
p1017
Vstreet
p1018
sV166
p1019
Vround
p1020
sV167
p1021
Vday
p1022
sV160
p1023
Vfall
p1024
sV161
p1025
Vmany
p1026
sV162
p1027
Vgirl
p1028
sV163
p1029
Vclear
p1030
sV2518
p1031
Vdandelion
p1032
sV2519
p1033
Vdairy
p1034
sV1842
p1035
Vrace
p1036
sV2514
p1037
Vdeli
p1038
sV2515
p1039
Vdeck
p1040
sV2516
p1041
Vdecember
p1042
sV2517
p1043
Vdead end
p1044
sV2510
p1045
Vdreadlocks
p1046
sV1841
p1047
Vracquet
p1048
sV2512
p1049
Vdoily
p1050
sV2513
p1051
Vdiagonal
p1052
sV2734
p1053
Vselling
p1054
sV2735
p1055
Vsecurity
p1056
sV2736
p1057
Vsecond from right
p1058
sV1840
p1059
Vradish
p1060
sV2730
p1061
Vsheet
p1062
sV2731
p1063
Vshearing sheep
p1064
sV2732
p1065
Vsharks
p1066
sV2733
p1067
Vshape
p1068
sV2738
p1069
Vscrewdriver
p1070
sV2739
p1071
Vscott
p1072
sV678
p1073
V28
p1074
sV679
p1075
Vwet
p1076
sV1814
p1077
Vtattoos
p1078
sV1815
p1079
Vsyrup
p1080
sV1816
p1081
Vswans
p1082
sV1817
p1083
Vsuits
p1084
sV1810
p1085
Vtie dye
p1086
sV1811
p1087
Vthumb
p1088
sV1812
p1089
Vthrow frisbee
p1090
sV1813
p1091
Vthrow ball
p1092
sV1818
p1093
Vstudents
p1094
sV1819
p1095
Vstrap
p1096
sV670
p1097
Vlow
p1098
sV2795
p1099
Vpantry
p1100
sV671
p1101
Vface
p1102
sV2401
p1103
Von roof
p1104
sV1609
p1105
Vwindmill
p1106
sV1608
p1107
Vwriting
p1108
sV1979
p1109
V46
p1110
sV1978
p1111
V4:00
p1112
sV1601
p1113
V1:50
p1114
sV1600
p1115
V1st
p1116
sV1603
p1117
V12:05
p1118
sV1602
p1119
V12:15
p1120
sV1605
p1121
V101
p1122
sV1604
p1123
V11:10
p1124
sV1607
p1125
V1 foot
p1126
sV1606
p1127
V100 feet
p1128
sV809
p1129
Vshallow
p1130
sV808
p1131
Vshrimp
p1132
sV803
p1133
Vsweater
p1134
sV802
p1135
Vswinging
p1136
sV801
p1137
Vtail
p1138
sV800
p1139
Vvest
p1140
sV807
p1141
Vsmile
p1142
sV806
p1143
Vstars
p1144
sV805
p1145
Vstation
p1146
sV804
p1147
Vsubway
p1148
sV2848
p1149
Vmississippi
p1150
sV2849
p1151
Vmint
p1152
sV2846
p1153
Vmoose
p1154
sV2847
p1155
Vmonopoly
p1156
sV2844
p1157
Vmountainous
p1158
sV2845
p1159
Vmore
p1160
sV2842
p1161
Vmovies
p1162
sV2843
p1163
Vmouthwash
p1164
sV2840
p1165
Vmural
p1166
sV2841
p1167
Vmulch
p1168
sV1775
p1169
V4:30
p1170
sV1774
p1171
V53
p1172
sV1777
p1173
V2nd
p1174
sV1776
p1175
V3:55
p1176
sV1771
p1177
Vabove sink
p1178
sV1770
p1179
Vabstract
p1180
sV1773
p1181
V5:00
p1182
sV1772
p1183
V7:25
p1184
sV1779
p1185
V1:55
p1186
sV1778
p1187
V2000
p1188
sV608
p1189
Vno parking
p1190
sV2998
p1191
Vcoffee cup
p1192
sV1159
p1193
Vhusky
p1194
sV1158
p1195
Vin background
p1196
sV2999
p1197
Vcoconut
p1198
sV1155
p1199
Vlabrador
p1200
sV1154
p1201
Vleaf
p1202
sV1157
p1203
Vketchup and mustard
p1204
sV1156
p1205
Vkickstand
p1206
sV1151
p1207
Vneck
p1208
sV1150
p1209
Von couch
p1210
sV1153
p1211
Vlove
p1212
sV1152
p1213
Vmessy
p1214
sV1555
p1215
Vdrawing
p1216
sV2618
p1217
V1:35
p1218
sV1554
p1219
Vdresser
p1220
sV1551
p1221
Vfeeding
p1222
sV1550
p1223
Vfighting
p1224
sV1553
p1225
Vearring
p1226
sV1552
p1227
Vfar
p1228
sV59
p1229
Vhorse
p1230
sV58
p1231
Vsilver
p1232
sV1557
p1233
Vdon't walk
p1234
sV1556
p1235
Vdrain
p1236
sV55
p1237
Vwinter
p1238
sV54
p1239
Vtrain
p1240
sV57
p1241
Vsheep
p1242
sV56
p1243
Vumbrella
p1244
sV51
p1245
Velephant
p1246
sV50
p1247
Vstop
p1248
sV53
p1249
Vapple
p1250
sV52
p1251
Vphone
p1252
sV537
p1253
Vring
p1254
sV536
p1255
Vshower
p1256
sV535
p1257
V23
p1258
sV534
p1259
Vbikes
p1260
sV533
p1261
Vblender
p1262
sV532
p1263
Vcowboy
p1264
sV531
p1265
Vcutting cake
p1266
sV530
p1267
Vflying kites
p1268
sV2992
p1269
Vcowboy hat
p1270
sV539
p1271
Vpolar bear
p1272
sV538
p1273
Vpug
p1274
sV2993
p1275
Vcourt
p1276
sV1558
p1277
Vdinosaur
p1278
sV2994
p1279
Vcorgi
p1280
sV2995
p1281
Vcontrollers
p1282
sV2805
p1283
Von woman
p1284
sV2996
p1285
Vcolonial
p1286
sV2997
p1287
Vcollege
p1288
sV429
p1289
Vlab
p1290
sV428
p1291
Vmustard
p1292
sV1399
p1293
Vmaple leaf
p1294
sV1398
p1295
Vmattress
p1296
sV421
p1297
Vboth
p1298
sV420
p1299
Vhead
p1300
sV423
p1301
Vtoy
p1302
sV422
p1303
Vwii controller
p1304
sV425
p1305
Vreal
p1306
sV424
p1307
Vstove
p1308
sV427
p1309
Voak
p1310
sV426
p1311
Vorange juice
p1312
sV2183
p1313
Vchickens
p1314
sV2182
p1315
Vcinnamon
p1316
sV2181
p1317
Vcirrus
p1318
sV2180
p1319
Vclip
p1320
sV2187
p1321
Vcatholic
p1322
sV2186
p1323
Vcaucasian
p1324
sV229
p1325
Vpine
p1326
sV228
p1327
Vrefrigerator
p1328
sV227
p1329
Vrestaurant
p1330
sV226
p1331
Vbirds
p1332
sV225
p1333
Vbrushing teeth
p1334
sV224
p1335
Voranges
p1336
sV223
p1337
Vpicture
p1338
sV222
p1339
Vremote
p1340
sV221
p1341
Vengland
p1342
sV220
p1343
Vpark
p1344
sV2213
p1345
Vathletics
p1346
sV2212
p1347
Vatv
p1348
sV2211
p1349
Vbabies
p1350
sV2210
p1351
Vbaggage claim
p1352
sV2217
p1353
Vairplanes
p1354
sV2216
p1355
Vana
p1356
sV2215
p1357
Vangry birds
p1358
sV2214
p1359
Vantelope
p1360
sV2219
p1361
Vaa
p1362
sV2218
p1363
Vagainst wall
p1364
sV2681
p1365
Vtransparent
p1366
sV2230
p1367
V5:40
p1368
sV151
p1369
Vsunglasses
p1370
sV150
p1371
Vfire hydrant
p1372
sV153
p1373
Vocean
p1374
sV152
p1375
Vscissors
p1376
sV155
p1377
Vcold
p1378
sV154
p1379
Vdonuts
p1380
sV157
p1381
Vtruck
p1382
sV156
p1383
Vwall
p1384
sV159
p1385
Vcoffee
p1386
sV158
p1387
Vtie
p1388
sV2431
p1389
Vmailbox
p1390
sV2430
p1391
Vmango
p1392
sV2437
p1393
Vlong sleeve
p1394
sV2436
p1395
Vlooking
p1396
sV2435
p1397
Vlotion
p1398
sV2434
p1399
Vlower
p1400
sV2236
p1401
V3:45
p1402
sV2509
p1403
Vdrums
p1404
sV2508
p1405
Vducati
p1406
sV2507
p1407
Vdump truck
p1408
sV2506
p1409
Vears
p1410
sV2505
p1411
Veasyjet
p1412
sV2504
p1413
Veaten
p1414
sV2503
p1415
Vegypt
p1416
sV2502
p1417
Velmo
p1418
sV2501
p1419
Vequestrian
p1420
sV2500
p1421
Vfar left
p1422
sV2727
p1423
Vshoulder length
p1424
sV2726
p1425
Vshow
p1426
sV2725
p1427
Vsilk
p1428
sV2724
p1429
Vsilverware
p1430
sV2723
p1431
Vsimpsons
p1432
sV2722
p1433
Vsippy cup
p1434
sV2721
p1435
Vski slope
p1436
sV2720
p1437
Vsledding
p1438
sV2729
p1439
Vshells
p1440
sV2728
p1441
Vshirts
p1442
sV2199
p1443
Vblack and brown
p1444
sV1807
p1445
Vto catch frisbee
p1446
sV1806
p1447
Vto dry
p1448
sV1805
p1449
Vto right
p1450
sV1804
p1451
Vtoiletries
p1452
sV1803
p1453
Vtoshiba
p1454
sV1802
p1455
Vtour
p1456
sV1801
p1457
Vtrain car
p1458
sV1800
p1459
Vtrain tracks
p1460
sV1809
p1461
Vtiles
p1462
sV1808
p1463
Vto catch ball
p1464
sV1524
p1465
Vmound
p1466
sV1948
p1467
Vcamping
p1468
sV1544
p1469
Vgatorade
p1470
sV1525
p1471
Vmonitor
p1472
sV1942
p1473
Vcoal
p1474
sV1943
p1475
Vcluttered
p1476
sV1940
p1477
Vcontainer
p1478
sV1941
p1479
Vcoffee maker
p1480
sV1946
p1481
Vcauliflower
p1482
sV1526
p1483
Vmercedes-benz
p1484
sV1944
p1485
Vcleaner
p1486
sV1945
p1487
Vchevron
p1488
sV818
p1489
Von street
p1490
sV819
p1491
Vmicrophone
p1492
sV1527
p1493
Vmenu
p1494
sV810
p1495
Vrunway
p1496
sV811
p1497
Vplaying game
p1498
sV812
p1499
Vpineapple
p1500
sV813
p1501
Vpickles
p1502
sV814
p1503
Vpelican
p1504
sV815
p1505
Vpeace
p1506
sV816
p1507
Vparty
p1508
sV817
p1509
Voutdoor
p1510
sV2859
p1511
Vmario kart
p1512
sV1545
p1513
Vfresh
p1514
sV1522
p1515
Vmud
p1516
sV1990
p1517
V1 hour
p1518
sV2851
p1519
Vmichael jordan
p1520
sV2850
p1521
Vmilking
p1522
sV2853
p1523
Vmelbourne
p1524
sV1523
p1525
Vmouth
p1526
sV2855
p1527
Vmeatballs
p1528
sV1993
p1529
Vwolf
p1530
sV2857
p1531
Vmayo
p1532
sV2856
p1533
Vmeatball
p1534
sV1490
p1535
Vsocks
p1536
sV1397
p1537
Vmodel
p1538
sV1492
p1539
Vskull and crossbones
p1540
sV1493
p1541
Vskate
p1542
sV1494
p1543
Vsigns
p1544
sV1495
p1545
Vsidecar
p1546
sV1496
p1547
Vside of road
p1548
sV1396
p1549
Vmotocross
p1550
sV1498
p1551
Vsesame
p1552
sV1499
p1553
Vseat
p1554
sV1395
p1555
Vn
sV1994
p1556
Vwhite and pink
p1557
sV1700
p1558
Vlicking
p1559
sV1701
p1560
Vletters
p1561
sV1702
p1562
Vlemons
p1563
sV1394
p1564
Vnobody
p1565
sV1704
p1566
Vland
p1567
sV1705
p1568
Vlady
p1569
sV1706
p1570
Vlace
p1571
sV1707
p1572
Vkissing
p1573
sV1708
p1574
Vjets
p1575
sV1393
p1576
Vnursing
p1577
sV1996
p1578
Vwheel
p1579
sV1392
p1580
Volder
p1581
sV1391
p1582
Von chair
p1583
sV1390
p1584
Von pole
p1585
sV1128
p1586
Vtop right
p1587
sV1129
p1588
Vtoothpaste
p1589
sV1628
p1590
Vstretching
p1591
sV1120
p1592
V20 feet
p1593
sV1121
p1594
Vyankees
p1595
sV1122
p1596
Vwine glasses
p1597
sV1123
p1598
Vwindy
p1599
sV1124
p1600
Vwii controllers
p1601
sV1125
p1602
Vwetsuits
p1603
sV1126
p1604
Vvent
p1605
sV1127
p1606
Vtrunk
p1607
sV2989
p1608
Vcranes
p1609
sV2988
p1610
Vcrazy
p1611
sV2983
p1612
Vcrowd
p1613
sV2982
p1614
Vcuckoo
p1615
sV2981
p1616
Vcustom
p1617
sV2980
p1618
Vcut off
p1619
sV2987
p1620
Vcrest
p1621
sV2986
p1622
Vcrochet
p1623
sV2985
p1624
Vcross street
p1625
sV2984
p1626
Vcrouching
p1627
sV524
p1628
V19
p1629
sV525
p1630
Vskateboarder
p1631
sV526
p1632
Vpillow
p1633
sV527
p1634
Vparking lot
p1635
sV520
p1636
Vfries
p1637
sV521
p1638
Vdogs
p1639
sV522
p1640
Vdinner
p1641
sV523
p1642
Vbicycles
p1643
sV1014
p1644
Vwheat
p1645
sV1015
p1646
Vtoys
p1647
sV1016
p1648
Vtire
p1649
sV1017
p1650
Vtennis player
p1651
sV528
p1652
Vparade
p1653
sV529
p1654
Vnapkin
p1655
sV1012
p1656
Vyamaha
p1657
sV1013
p1658
Vwristband
p1659
sV1234
p1660
Vdoubles
p1661
sV1235
p1662
Vdots
p1663
sV1236
p1664
Vdishwasher
p1665
sV1237
p1666
Vcut
p1667
sV1230
p1668
Vfalling
p1669
sV1231
p1670
Vengine
p1671
sV1232
p1672
Veat
p1673
sV1233
p1674
Ve
sV1238
p1675
Vcupcakes
p1676
sV1239
p1677
Vcolgate
p1678
sV2526
p1679
Vcool
p1680
sV438
p1681
Vlong
p1682
sV439
p1683
Vhot
p1684
sV436
p1685
Vred and black
p1686
sV437
p1687
Vpeppers
p1688
sV434
p1689
Vtrash can
p1690
sV435
p1691
Vtoilet paper
p1692
sV432
p1693
Vblinds
p1694
sV433
p1695
Vwhite and blue
p1696
sV430
p1697
Vclay
p1698
sV431
p1699
Vcalm
p1700
sV2864
p1701
Vmachine
p1702
sV2481
p1703
Vgray and red
p1704
sV2865
p1705
Vmacaroni and cheese
p1706
sV1967
p1707
Vbaby's breath
p1708
sV2868
p1709
Vlooking in fridge
p1710
sV2869
p1711
Vlooking down
p1712
sV1960
p1713
Vblue and gray
p1714
sV1961
p1715
Vblack and blue
p1716
sV2464
p1717
Vhood
p1718
sV2465
p1719
Vholstein
p1720
sV2466
p1721
Vholding it
p1722
sV2467
p1723
Vhockey
p1724
sV238
p1725
Vbackground
p1726
sV239
p1727
Vtalking on phone
p1728
sV234
p1729
Vgraffiti
p1730
sV235
p1731
Vbrown and white
p1732
sV236
p1733
Vsummer
p1734
sV237
p1735
Vrainy
p1736
sV230
p1737
V50
p1738
sV231
p1739
Vwatch
p1740
sV232
p1741
Vvery
p1742
sV233
p1743
Vjeans
p1744
sV2462
p1745
Vin glass
p1746
sV2228
p1747
V63
p1748
sV2229
p1749
V5:45
p1750
sV2226
p1751
V6:45
p1752
sV2227
p1753
V64
p1754
sV2224
p1755
V700
p1756
sV2225
p1757
V7 eleven
p1758
sV2222
p1759
V8:00
p1760
sV2223
p1761
V80
p1762
sV2220
p1763
V9:55
p1764
sV2221
p1765
V99
p1766
sV1
Vyes
p1767
sV146
p1768
Vhorses
p1769
sV147
p1770
Vbirthday
p1771
sV144
p1772
Vchair
p1773
sV145
p1774
Vopen
p1775
sV142
p1776
Vairplane
p1777
sV143
p1778
Vsand
p1779
sV140
p1780
Vtv
p1781
sV141
p1782
Vwalking
p1783
sV2468
p1784
Vhills
p1785
sV148
p1786
Vmountains
p1787
sV149
p1788
Vfruit
p1789
sV2088
p1790
Vnest
p1791
sV2089
p1792
Vneither
p1793
sV2082
p1794
Von fridge
p1795
sV2083
p1796
Von car
p1797
sV2080
p1798
Vone in back
p1799
sV2081
p1800
Von rock
p1801
sV2086
p1802
Vnews
p1803
sV2087
p1804
Vnever
p1805
sV2084
p1806
Von beach
p1807
sV2085
p1808
Voars
p1809
sV2538
p1810
Vchest
p1811
sV2539
p1812
Vcheckerboard
p1813
sV2532
p1814
Vcoca-cola
p1815
sV2533
p1816
Vclover
p1817
sV2530
p1818
Vcondiments
p1819
sV2531
p1820
Vcoffee table
p1821
sV2536
p1822
Vchili
p1823
sV2537
p1824
Vchevy
p1825
sV2534
p1826
Vcleaning itself
p1827
sV2535
p1828
Vchimney
p1829
sV2712
p1830
Vspot
p1831
sV2713
p1832
Vsomeone
p1833
sV2710
p1834
Vstaples
p1835
sV2711
p1836
Vspotted
p1837
sV2716
p1838
Vsofa
p1839
sV2717
p1840
Vsoap dispenser
p1841
sV2714
p1842
Vsome
p1843
sV2715
p1844
Vsombrero
p1845
sV2718
p1846
Vsnowsuit
p1847
sV2719
p1848
Vsmartphone
p1849
sV1832
p1850
Vrocky
p1851
sV1833
p1852
Vriding horses
p1853
sV1830
p1854
Vshaking hands
p1855
sV1831
p1856
Vrye
p1857
sV1836
p1858
Vred white blue
p1859
sV1837
p1860
Vred and gray
p1861
sV1834
p1862
Vremotes
p1863
sV1835
p1864
Vregular
p1865
sV1838
p1866
Vrecessed
p1867
sV1839
p1868
Vraspberry
p1869
sV2154
p1870
Vflat screen
p1871
sV2155
p1872
Vflamingo
p1873
sV939
p1874
Vemirates
p1875
sV938
p1876
Vfell
p1877
sV2150
p1878
Vforks
p1879
sV2151
p1880
Vfly
p1881
sV2152
p1882
Vfloating
p1883
sV2153
p1884
Vflats
p1885
sV933
p1886
Vitalian
p1887
sV932
p1888
Von building
p1889
sV931
p1890
Vone on left
p1891
sV930
p1892
Vowner
p1893
sV937
p1894
Vfrance
p1895
sV936
p1896
Vhalf
p1897
sV935
p1898
Vharness
p1899
sV934
p1900
Vhungry
p1901
sV1955
p1902
Vbrown and black
p1903
sV1954
p1904
Vburrito
p1905
sV1957
p1906
Vbraves
p1907
sV1956
p1908
Vbriefcase
p1909
sV1951
p1910
Vcakes
p1911
sV1950
p1912
Vcalendar
p1913
sV1953
p1914
Vbutt
p1915
sV1952
p1916
Vbutton
p1917
sV1959
p1918
Vblue and pink
p1919
sV1958
p1920
Vboard
p1921
sV829
p1922
Vbikini
p1923
sV828
p1924
Vcalico
p1925
sV825
p1926
Vcookies
p1927
sV824
p1928
Vdriving
p1929
sV827
p1930
Vcart
p1931
sV826
p1932
Vceramic
p1933
sV821
p1934
Vgreen and yellow
p1935
sV820
p1936
Vharley davidson
p1937
sV823
p1938
Veurope
p1939
sV822
p1940
Vglazed
p1941
sV1536
p1942
Vin vase
p1943
sV2409
p1944
Vno room
p1945
sV1483
p1946
Vtennis racquet
p1947
sV1482
p1948
Vtoaster
p1949
sV1481
p1950
Vtoilet brush
p1951
sV1480
p1952
Vtongue
p1953
sV1487
p1954
Vspoons
p1955
sV1486
p1956
Vstorage
p1957
sV1485
p1958
Vstreet light
p1959
sV1484
p1960
Vtaking pictures
p1961
sV1489
p1962
Vsoft
p1963
sV1488
p1964
Vspeakers
p1965
sV797
p1966
Vbasil
p1967
sV796
p1968
Vbulldog
p1969
sV795
p1970
Vbus stop
p1971
sV794
p1972
Vbutter
p1973
sV793
p1974
Vbutterfly
p1975
sV792
p1976
Vcats
p1977
sV791
p1978
Vcleaning
p1979
sV790
p1980
Vflags
p1981
sV1719
p1982
Vgrandfather
p1983
sV1718
p1984
Vgrizzly
p1985
sV2413
p1986
Vnext to toilet
p1987
sV799
p1988
V60
p1989
sV798
p1990
Vapron
p1991
sV1270
p1992
Vtarp
p1993
sV2412
p1994
Vnikon
p1995
sV1271
p1996
Vtape
p1997
sV2415
p1998
Vname tag
p1999
sV1272
p2000
Vtags
p2001
sV2414
p2002
Vnasa
p2003
sV1139
p2004
Vschool bus
p2005
sV1138
p2006
Vshelves
p2007
sV2417
p2008
Vmosaic
p2009
sV1133
p2010
Vstopped
p2011
sV1132
p2012
Vstroller
p2013
sV1131
p2014
Vsushi
p2015
sV1130
p2016
Vtoast
p2017
sV1137
p2018
Vskirt
p2019
sV1136
p2020
Vsleep
p2021
sV1135
p2022
Vsnowboards
p2023
sV1134
p2024
Vspatula
p2025
sV2419
p2026
Vmitt
p2027
sV1276
p2028
Vsteps
p2029
sV2418
p2030
Vmoo
p2031
sV1277
p2032
Vspeaker
p2033
sV2790
p2034
Vpasture
p2035
sV2791
p2036
Vparty bus
p2037
sV2796
p2038
Vpancake
p2039
sV2793
p2040
Vparasail
p2041
sV2797
p2042
Vpanasonic
p2043
sV519
p2044
Vfront
p2045
sV518
p2046
Vheadband
p2047
sV2149
p2048
Vfox
p2049
sV1009
p2050
V2011
p2051
sV1008
p2052
V2012
p2053
sV1007
p2054
Vair force
p2055
sV1006
p2056
Vantique
p2057
sV1005
p2058
Vbeans
p2059
sV1004
p2060
Vblue and green
p2061
sV515
p2062
Vp
sV1002
p2063
Vboxes
p2064
sV517
p2065
Vmilitary
p2066
sV1000
p2067
Vbusiness
p2068
sV623
p2069
Vtulips
p2070
sV622
p2071
Vwarm
p2072
sV1225
p2073
Vgeese
p2074
sV620
p2075
Vbacon
p2076
sV627
p2077
Vnorth
p2078
sV626
p2079
Von counter
p2080
sV625
p2081
Von floor
p2082
sV624
p2083
Vslow
p2084
sV629
p2085
Vin bowl
p2086
sV628
p2087
Vmarble
p2088
sV1229
p2089
Vfeet
p2090
sV1228
p2091
Vferry
p2092
sV1535
p2093
Vindex
p2094
sV2882
p2095
Vknitting
p2096
sV2883
p2097
Vknit
p2098
sV2880
p2099
Vlamp post
p2100
sV2881
p2101
Vkodak
p2102
sV2886
p2103
Vkangaroo
p2104
sV2887
p2105
Vjungle
p2106
sV2884
p2107
Vkneeling
p2108
sV2885
p2109
Vkfc
p2110
sV2888
p2111
Vjoy
p2112
sV2889
p2113
Vjones
p2114
sV2
Vno
p2115
sV1286
p2116
Vqueen
p2117
sV11
p2118
Vblack
p2119
sV10
p2120
Vgreen
p2121
sV13
p2122
Vbrown
p2123
sV12
p2124
Vyellow
p2125
sV15
p2126
Vtennis
p2127
sV14
p2128
V5
sV17
p2129
Vright
p2130
sV16
p2131
Vbaseball
p2132
sV19
p2133
Vbathroom
p2134
sV18
p2135
Vorange
p2136
sV2382
p2137
Vpencil
p2138
sV2742
p2139
Vsanta fe
p2140
sV1534
p2141
Vladybug
p2142
sV201
p2143
Vno one
p2144
sV200
p2145
Vcity
p2146
sV203
p2147
V14
p2148
sV202
p2149
Vevening
p2150
sV205
p2151
Vhappy
p2152
sV204
p2153
Vzebras
p2154
sV207
p2155
Vbuilding
p2156
sV206
p2157
Vchicken
p2158
sV209
p2159
Vbackpack
p2160
sV208
p2161
Vsun
p2162
sV2745
p2163
Vsale
p2164
sV1573
p2165
Vbroom
p2166
sV1572
p2167
Vbunny
p2168
sV1571
p2169
Vcabbage
p2170
sV2239
p2171
V3:20
p2172
sV2238
p2173
V3:25
p2174
sV1570
p2175
Vcafe
p2176
sV2231
p2177
V5:15
p2178
sV1577
p2179
Vblankets
p2180
sV2233
p2181
V52
p2182
sV2232
p2183
V54
p2184
sV2235
p2185
V4:15
p2186
sV2234
p2187
V5 ft
p2188
sV2237
p2189
V3:30
p2190
sV1576
p2191
Vboys
p2192
sV1575
p2193
Vbrace
p2194
sV1574
p2195
Vbrazil
p2196
sV2185
p2197
Vcell
p2198
sV2184
p2199
Vchampagne
p2200
sV2095
p2201
Vmother
p2202
sV2094
p2203
Vmotorbike
p2204
sV2097
p2205
Vmillions
p2206
sV2096
p2207
Vmitsubishi
p2208
sV2091
p2209
Vmovement
p2210
sV2090
p2211
Vname
p2212
sV2093
p2213
Vmotorcycle show
p2214
sV2092
p2215
Vmouse pad
p2216
sV2099
p2217
Vmeow
p2218
sV2098
p2219
Vmercedes benz
p2220
sV2525
p2221
Vcostume
p2222
sV2524
p2223
Vcountryside
p2224
sV2527
p2225
Vcontrol
p2226
sV2188
p2227
Vcardinal
p2228
sV2521
p2229
Vcrossed
p2230
sV2520
p2231
Vcrows
p2232
sV2523
p2233
Vcouple
p2234
sV2522
p2235
Vcrafts
p2236
sV2529
p2237
Vconference
p2238
sV2528
p2239
Vconfused
p2240
sV2709
p2241
Vstar wars
p2242
sV2708
p2243
Vstethoscope
p2244
sV2705
p2245
Vsuburban
p2246
sV2704
p2247
Vsunbathing
p2248
sV2707
p2249
Vstreet lights
p2250
sV2706
p2251
Vstyle
p2252
sV2701
p2253
Vtail lights
p2254
sV2700
p2255
Vtalking on cell phone
p2256
sV2703
p2257
Vt mobile
p2258
sV2702
p2259
Vtabasco
p2260
sV1829
p2261
Vshopping cart
p2262
sV1828
p2263
Vshower curtain
p2264
sV2951
p2265
Vfishnet
p2266
sV1825
p2267
Vspace needle
p2268
sV1824
p2269
Vst patrick's day
p2270
sV1827
p2271
Vskyscrapers
p2272
sV1826
p2273
Vsoldier
p2274
sV1821
p2275
Vstopping
p2276
sV1820
p2277
Vstork
p2278
sV1823
p2279
Vstate farm
p2280
sV1822
p2281
Vsteering wheel
p2282
sV928
p2283
Vpoodle
p2284
sV929
p2285
Vpilot
p2286
sV2145
p2287
Vfurniture
p2288
sV2144
p2289
Vgate
p2290
sV2143
p2291
Vgazebo
p2292
sV2142
p2293
Vge
p2294
sV2141
p2295
Vgmc
p2296
sV2140
p2297
Vgoatee
p2298
sV920
p2299
Vtaxi
p2300
sV921
p2301
Vtag
p2302
sV922
p2303
Vsuv
p2304
sV923
p2305
Vstring
p2306
sV924
p2307
Vstool
p2308
sV925
p2309
Vsetting
p2310
sV926
p2311
Vsanta
p2312
sV927
p2313
Vpower lines
p2314
sV2411
p2315
Vnitro
p2316
sV1920
p2317
Vearrings
p2318
sV1921
p2319
Vear
p2320
sV1922
p2321
Vdrinking water
p2322
sV1923
p2323
Vdown street
p2324
sV1924
p2325
Vdoughnut
p2326
sV1925
p2327
Vdouble
p2328
sV1926
p2329
Vdodge
p2330
sV1927
p2331
Vdirections
p2332
sV1928
p2333
Vdifferent teams
p2334
sV1929
p2335
Vdesserts
p2336
sV832
p2337
Vyellow and black
p2338
sV833
p2339
Vwild
p2340
sV830
p2341
V32
p2342
sV831
p2343
V10 feet
p2344
sV836
p2345
Vtall
p2346
sV837
p2347
Vsteak
p2348
sV834
p2349
Vuphill
p2350
sV835
p2351
Vtusks
p2352
sV838
p2353
Vsony
p2354
sV839
p2355
Vsmiling
p2356
sV3
V2
sV1986
p2357
V1950
p2358
sV2511
p2359
Vdonkey
p2360
sV1987
p2361
V11:55
p2362
sV1532
p2363
Vlegs
p2364
sV784
p2365
Vlion
p2366
sV785
p2367
Vlibrary
p2368
sV786
p2369
Vlaptops
p2370
sV787
p2371
Vhigh
p2372
sV780
p2373
Vroman numerals
p2374
sV781
p2375
Vroman
p2376
sV782
p2377
Vpasta
p2378
sV783
p2379
Vnavy
p2380
sV1726
p2381
Vfriends
p2382
sV1727
p2383
Vflat
p2384
sV1724
p2385
Vfur
p2386
sV1725
p2387
Vfrog
p2388
sV788
p2389
Vharley
p2390
sV789
p2391
Vgarbage
p2392
sV1720
p2393
Vgolden gate
p2394
sV1721
p2395
Vglobe
p2396
sV2355
p2397
Vrv
p2398
sV2439
p2399
Vlei
p2400
sV60
p2401
Vbanana
p2402
sV61
p2403
Vmotorcycle
p2404
sV62
p2405
V9
sV63
p2406
Vlaptop
p2407
sV64
p2408
Vbeach
p2409
sV65
p2410
Vsunny
p2411
sV66
p2412
Vcake
p2413
sV67
p2414
Vbrick
p2415
sV68
p2416
Vwine
p2417
sV69
p2418
Vwoman
p2419
sV1371
p2420
Vsmiley face
p2421
sV1588
p2422
Vair conditioner
p2423
sV1589
p2424
V9:25
p2425
sV1370
p2426
Vsmoking
p2427
sV1582
p2428
Vbarrel
p2429
sV1583
p2430
Vbagel
p2431
sV1580
p2432
Vbaseball cap
p2433
sV1581
p2434
Vbars
p2435
sV1586
p2436
Vapple and banana
p2437
sV1373
p2438
Vrust
p2439
sV1584
p2440
Vawake
p2441
sV1585
p2442
Varabic
p2443
sV2433
p2444
Vm&m's
p2445
sV1038
p2446
Vjeep
p2447
sV1039
p2448
Vin front
p2449
sV508
p2450
Vpolo
p2451
sV509
p2452
Vorange and white
p2453
sV1032
p2454
Vmulti
p2455
sV507
p2456
Vskateboards
p2457
sV1030
p2458
Von shelf
p2459
sV505
p2460
Vyellow and blue
p2461
sV502
p2462
Vchef
p2463
sV503
p2464
Vbottle
p2465
sV500
p2466
Vcross
p2467
sV501
p2468
Vcolor
p2469
sV1212
p2470
Vman's
p2471
sV1213
p2472
Vlufthansa
p2473
sV632
p2474
Vdock
p2475
sV633
p2476
Vbig ben
p2477
sV1216
p2478
Vjockey
p2479
sV1217
p2480
Vhp
p2481
sV636
p2482
V3 feet
p2483
sV637
p2484
Vvan
p2485
sV638
p2486
Vtoyota
p2487
sV639
p2488
Vterrier
p2489
sV1218
p2490
Vhouses
p2491
sV1219
p2492
Vhorizontal
p2493
sV2416
p2494
Vmulticolored
p2495
sV465
p2496
Vscarf
p2497
sV2899
p2498
Vin her hand
p2499
sV1728
p2500
Vfire extinguisher
p2501
sV2895
p2502
Visuzu
p2503
sV2894
p2504
Vit's not
p2505
sV2897
p2506
Vin zoo
p2507
sV1729
p2508
Vfeeding giraffe
p2509
sV2891
p2510
Vjars
p2511
sV2890
p2512
Vjet ski
p2513
sV2893
p2514
Vjackson
p2515
sV2892
p2516
Vjalapenos
p2517
sV1106
p2518
Vcereal
p2519
sV1107
p2520
Vcaution
p2521
sV1104
p2522
Vcloth
p2523
sV1105
p2524
Vchevrolet
p2525
sV1102
p2526
Vcord
p2527
sV1103
p2528
Vcoach
p2529
sV1100
p2530
Vcubs
p2531
sV1101
p2532
Vcountry
p2533
sV1458
p2534
V6 feet
p2535
sV1459
p2536
V5:25
p2537
sV1108
p2538
Vcane
p2539
sV1109
p2540
Vcabinet
p2541
sV1722
p2542
Vgas station
p2543
sV1723
p2544
Vgarden
p2545
sV1897
p2546
Vibm
p2547
sV1891
p2548
Vlacoste
p2549
sV2136
p2550
Vguitar hero
p2551
sV2137
p2552
Vgrind
p2553
sV2794
p2554
Vpaper towel
p2555
sV2965
p2556
Vdrying
p2557
sV216
p2558
Vplastic
p2559
sV217
p2560
Vlot
p2561
sV214
p2562
Vluggage
p2563
sV215
p2564
Vflying kite
p2565
sV212
p2566
Vdaytime
p2567
sV213
p2568
Vfish
p2569
sV210
p2570
Vpolice
p2571
sV211
p2572
Vplaying wii
p2573
sV1530
p2574
Vloading
p2575
sV218
p2576
Vspoon
p2577
sV219
p2578
Von wall
p2579
sV2138
p2580
Vgreyhound
p2581
sV2139
p2582
Vgreen beans
p2583
sV4
V1
sV2669
p2584
Vunclear
p2585
sV2550
p2586
Vcaboose
p2587
sV2551
p2588
Vby window
p2589
sV2552
p2590
Vby water
p2591
sV2553
p2592
Vbusy
p2593
sV2554
p2594
Vburnt
p2595
sV2555
p2596
Vburned
p2597
sV2556
p2598
Vbuns
p2599
sV2557
p2600
Vbunk beds
p2601
sV2558
p2602
Vbronze
p2603
sV2559
p2604
Vbroccoli and carrots
p2605
sV2396
p2606
Vout of focus
p2607
sV2397
p2608
Voriental
p2609
sV2394
p2610
Vover easy
p2611
sV2395
p2612
Voutfield
p2613
sV2392
p2614
Voxen
p2615
sV2393
p2616
Vowls
p2617
sV2390
p2618
Vpaper towels
p2619
sV2391
p2620
Vpalm tree
p2621
sV2398
p2622
Vorganic
p2623
sV2399
p2624
Von sign
p2625
sV2778
p2626
Vpickup
p2627
sV2779
p2628
Vphiladelphia
p2629
sV2770
p2630
Vposter
p2631
sV2771
p2632
Vplum
p2633
sV2772
p2634
Vplaystation
p2635
sV2773
p2636
Vplaying video games
p2637
sV2774
p2638
Vplaying video game
p2639
sV2775
p2640
Vplayground
p2641
sV2776
p2642
Vplain
p2643
sV2777
p2644
Vpink and black
p2645
sV2751
p2646
Vromaine
p2647
sV2803
p2648
Vone world
p2649
sV1858
p2650
Vparking meters
p2651
sV1859
p2652
Vparis
p2653
sV1850
p2654
Vplaying soccer
p2655
sV1851
p2656
Vplastic wrap
p2657
sV1852
p2658
Vplacemat
p2659
sV1853
p2660
Vpizza hut
p2661
sV1854
p2662
Vpirate
p2663
sV1855
p2664
Vping pong
p2665
sV1856
p2666
Vpenne
p2667
sV1857
p2668
Vparrots
p2669
sV2172
p2670
Vcrossing
p2671
sV2173
p2672
Vcooler
p2673
sV2170
p2674
Vdancing
p2675
sV2171
p2676
Vd
sV919
p2677
Vtoaster oven
p2678
sV918
p2679
Vtoothbrushes
p2680
sV2174
p2681
Vcongratulations
p2682
sV2175
p2683
Vconcert
p2684
sV915
p2685
Vwater bottle
p2686
sV914
p2687
Vwires
p2688
sV917
p2689
Vwaiting
p2690
sV916
p2691
Vwashington dc
p2692
sV911
p2693
Vadult
p2694
sV910
p2695
Vall
p2696
sV913
p2697
V26
p2698
sV912
p2699
V33
p2700
sV2604
p2701
V74
p2702
sV2605
p2703
V68
p2704
sV2606
p2705
V61
p2706
sV2607
p2707
V6 inches
p2708
sV2600
p2709
V8:50
p2710
sV2601
p2711
V88
p2712
sV2602
p2713
V8 feet
p2714
sV2603
p2715
V7:45
p2716
sV2608
p2717
V5:10
p2718
sV2609
p2719
V3:50
p2720
sV1933
p2721
Vcutting hair
p2722
sV1932
p2723
Vdachshund
p2724
sV1931
p2725
Vday time
p2726
sV1930
p2727
Vdeep
p2728
sV1937
p2729
Vcrown
p2730
sV1936
p2731
Vcucumbers
p2732
sV1935
p2733
Vcurb
p2734
sV1934
p2735
Vcurious
p2736
sV1939
p2737
Vcop
p2738
sV1938
p2739
Vcream
p2740
sV847
p2741
Vparked
p2742
sV846
p2743
Vpickle
p2744
sV845
p2745
Vpigeons
p2746
sV844
p2747
Vpolka dot
p2748
sV843
p2749
Vpork
p2750
sV842
p2751
Vrailing
p2752
sV841
p2753
Vsauce
p2754
sV840
p2755
Vserving
p2756
sV849
p2757
Vmushrooms
p2758
sV848
p2759
Von tower
p2760
sV2406
p2761
Von bus
p2762
sV663
p2763
Vsparrow
p2764
sV1587
p2765
Valmonds
p2766
sV2407
p2767
Vnot in service
p2768
sV1739
p2769
Vdiamonds
p2770
sV1738
p2771
Vdiet coke
p2772
sV1731
p2773
Vfar right
p2774
sV1730
p2775
Vfashion
p2776
sV1733
p2777
Vdrinks
p2778
sV1732
p2779
Veiffel tower
p2780
sV662
p2781
Vstairs
p2782
sV1734
p2783
Vdr pepper
p2784
sV1737
p2785
Vdole
p2786
sV1736
p2787
Vdoll
p2788
sV2404
p2789
Von dog
p2790
sV753
p2791
Vmedium
p2792
sV752
p2793
Vmuseum
p2794
sV751
p2795
Vone on right
p2796
sV750
p2797
Vorioles
p2798
sV757
p2799
Vhorns
p2800
sV756
p2801
Vlittle
p2802
sV755
p2803
Vmagnets
p2804
sV754
p2805
Vmask
p2806
sV759
p2807
Vforeground
p2808
sV758
p2809
Vhair dryer
p2810
sV1595
p2811
V48
p2812
sV506
p2813
Vstrawberries
p2814
sV1597
p2815
V2:25
p2816
sV1596
p2817
V3:10
p2818
sV1591
p2819
V5 years
p2820
sV1590
p2821
V75
p2822
sV1593
p2823
V4:20
p2824
sV1033
p2825
Vmoss
p2826
sV2954
p2827
Vferris wheel
p2828
sV2955
p2829
Vfarmers
p2830
sV2956
p2831
Vfanny pack
p2832
sV2957
p2833
Vfactory
p2834
sV1599
p2835
V2007
p2836
sV504
p2837
Vboots
p2838
sV2952
p2839
Vfireworks
p2840
sV2953
p2841
Vfirefox
p2842
sV1025
p2843
Vpeacock
p2844
sV1024
p2845
Vpoor
p2846
sV1027
p2847
Voveralls
p2848
sV1031
p2849
Vnew
p2850
sV1021
p2851
Vradiator
p2852
sV1020
p2853
Vrail
p2854
sV1023
p2855
Vpots
p2856
sV1022
p2857
Vpropeller
p2858
sV1036
p2859
Vknee pads
p2860
sV1029
p2861
Vonion
p2862
sV1028
p2863
Vostrich
p2864
sV1037
p2865
Vkiwi
p2866
sV1034
p2867
Vmohawk
p2868
sV1035
p2869
Vmap
p2870
sV605
p2871
Vplants
p2872
sV604
p2873
Vpoles
p2874
sV607
p2875
Vnowhere
p2876
sV606
p2877
Vowl
p2878
sV601
p2879
Vseagulls
p2880
sV600
p2881
Vwatching
p2882
sV603
p2883
Vramp
p2884
sV602
p2885
Vred white and blue
p2886
sV1205
p2887
Von top
p2888
sV1204
p2889
Vpaisley
p2890
sV1207
p2891
Von his head
p2892
sV1206
p2893
Von man
p2894
sV609
p2895
Vnet
p2896
sV1200
p2897
Vrack
p2898
sV1203
p2899
Vpillows
p2900
sV1202
p2901
Vplatform
p2902
sV1211
p2903
Vmexico
p2904
sV634
p2905
Vbatting
p2906
sV635
p2907
Vb
sV1214
p2908
Vlos angeles
p2909
sV1215
p2910
Vjuice
p2911
sV1111
p2912
Vbow tie
p2913
sV1110
p2914
Vbush
p2915
sV1113
p2916
Vblurry
p2917
sV1112
p2918
Vboogie board
p2919
sV1115
p2920
Vbeagle
p2921
sV1114
p2922
Vbelow
p2923
sV1117
p2924
Vbackhand
p2925
sV464
p2926
Vsuit
p2927
sV1119
p2928
V350
p2929
sV1118
p2930
Vamerican flag
p2931
sV467
p2932
Vpolar
p2933
sV1449
p2934
Vbone
p2935
sV1448
p2936
Vbridle
p2937
sV466
p2938
Vposing
p2939
sV1357
p2940
Vto left
p2941
sV460
p2942
Vmarket
p2943
sV1355
p2944
Vtractor
p2945
sV489
p2946
Vindia
p2947
sV488
p2948
Vlake
p2949
sV487
p2950
Vmeat
p2951
sV486
p2952
Vpole
p2953
sV485
p2954
Vrice
p2955
sV1354
p2956
Vtrains
p2957
sV483
p2958
Vshelf
p2959
sV482
p2960
Vaway
p2961
sV481
p2962
Vboats
p2963
sV480
p2964
Vbricks
p2965
sV2898
p2966
Vin motion
p2967
sV2896
p2968
Vironing board
p2969
sV199
p2970
Vclock
p2971
sV198
p2972
Vcouch
p2973
sV195
p2974
Vmountain
p2975
sV194
p2976
Vstone
p2977
sV197
p2978
Vdirt
p2979
sV196
p2980
Vwindow
p2981
sV191
p2982
Von table
p2983
sV190
p2984
Vpaper
p2985
sV193
p2986
Vsquare
p2987
sV192
p2988
Velephants
p2989
sV2408
p2990
Vnot at all
p2991
sV2543
p2992
Vcd
p2993
sV1454
p2994
Varrow
p2995
sV2541
p2996
Vcentral
p2997
sV2540
p2998
Vcessna
p2999
sV2547
p3000
Vcamper
p3001
sV2546
p3002
Vcasserole
p3003
sV2545
p3004
Vcast iron
p3005
sV1455
p3006
Valaska
p3007
sV2549
p3008
Vcalculator
p3009
sV2548
p3010
Vcameras
p3011
sV1456
p3012
Vair canada
p3013
sV2381
p3014
Vpersian
p3015
sV2380
p3016
Vperspective
p3017
sV2383
p3018
Vpeeling
p3019
sV1457
p3020
Vabove stove
p3021
sV2385
p3022
Vpeanuts
p3023
sV2384
p3024
Vpearl
p3025
sV2387
p3026
Vparmesan cheese
p3027
sV2386
p3028
Vpeanut butter
p3029
sV2389
p3030
Vparakeet
p3031
sV1450
p3032
Vboarding
p3033
sV1451
p3034
Vbiplane
p3035
sV2769
p3036
Vpractice
p3037
sV2768
p3038
Vpresident
p3039
sV1452
p3040
Vbelt
p3041
sV2763
p3042
Vpulled pork
p3043
sV2762
p3044
Vpumpkins
p3045
sV2761
p3046
Vpuppy
p3047
sV1453
p3048
Vballs
p3049
sV2767
p3050
Vpretzels
p3051
sV2766
p3052
Vproctor
p3053
sV2765
p3054
Vpropellers
p3055
sV2764
p3056
Vprotesting
p3057
sV1949
p3058
Vcamel
p3059
sV2007
p3060
Vuniform
p3061
sV902
p3062
Vcircles
p3063
sV903
p3064
Vcatching frisbee
p3065
sV900
p3066
Vcook
p3067
sV901
p3068
Vcones
p3069
sV906
p3070
Vblack and yellow
p3071
sV907
p3072
Vbeard
p3073
sV904
p3074
Vcandy
p3075
sV905
p3076
Vcalifornia
p3077
sV1843
p3078
Vpurple and white
p3079
sV1511
p3080
Vpirates
p3081
sV908
p3082
Vbarbed wire
p3083
sV909
p3084
Varmy
p3085
sV1847
p3086
Vpolice officer
p3087
sV1846
p3088
Vpost
p3089
sV1845
p3090
Vpotato
p3091
sV1844
p3092
Vprom
p3093
sV2169
p3094
Vdb
p3095
sV2168
p3096
Vdelivery
p3097
sV2165
p3098
Vdining
p3099
sV2164
p3100
Vdoughnuts
p3101
sV2167
p3102
Vdesign
p3103
sV2166
p3104
Vdiesel
p3105
sV2161
p3106
Vend
p3107
sV2160
p3108
Vescalator
p3109
sV2163
p3110
Vdriveway
p3111
sV2162
p3112
Velm
p3113
sV2617
p3114
V1:40
p3115
sV2616
p3116
V2.00
p3117
sV2615
p3118
V2005
p3119
sV2614
p3120
V2:30
p3121
sV2613
p3122
V2:45
p3123
sV2612
p3124
V3 inches
p3125
sV2611
p3126
V3:18
p3127
sV2610
p3128
V3:40
p3129
sV2619
p3130
V1950s
p3131
sV1947
p3132
Vcar show
p3133
sV1908
p3134
Vfor balance
p3135
sV1909
p3136
Vfootprints
p3137
sV1906
p3138
Vfrisbees
p3139
sV1907
p3140
Vfork and spoon
p3141
sV1904
p3142
Vhanger
p3143
sV1905
p3144
Vgreen and blue
p3145
sV1902
p3146
Vhealthy
p3147
sV1903
p3148
Vharry potter
p3149
sV1900
p3150
Vhigh heels
p3151
sV1901
p3152
Vheat
p3153
sV854
p3154
Vhair
p3155
sV855
p3156
Vgrill
p3157
sV856
p3158
Vgolden retriever
p3159
sV857
p3160
Vgoat
p3161
sV850
p3162
Vlots
p3163
sV851
p3164
Vleash
p3165
sV852
p3166
Vhandle
p3167
sV853
p3168
Vhalloween
p3169
sV858
p3170
Vfrench fries
p3171
sV859
p3172
Vforward
p3173
sV6
V3
sV2463
p3174
Vin cup
p3175
sV740
p3176
Vtowels
p3177
sV741
p3178
Vtiger
p3179
sV742
p3180
Vstuffed animals
p3181
sV743
p3182
Vstick
p3183
sV744
p3184
Vsouth
p3185
sV745
p3186
Vsad
p3187
sV746
p3188
Vred sox
p3189
sV747
p3190
Vpotatoes
p3191
sV748
p3192
Vplaying baseball
p3193
sV749
p3194
Vpigeon
p3195
sV2912
p3196
Vhexagon
p3197
sV1798
p3198
Vtrick
p3199
sV2949
p3200
Vflames
p3201
sV2948
p3202
Vflash
p3203
sV2947
p3204
Vflatbread
p3205
sV2946
p3206
Vflying tigers
p3207
sV2945
p3208
Vfog
p3209
sV2944
p3210
Vfor photo
p3211
sV2943
p3212
Vfor train
p3213
sV2942
p3214
Vforehand
p3215
sV2941
p3216
Vforklift
p3217
sV2940
p3218
Vfrench toast
p3219
sV1050
p3220
Vcamo
p3221
sV1051
p3222
Vbushes
p3223
sV1052
p3224
Vbrush
p3225
sV1053
p3226
Vboston
p3227
sV1054
p3228
Vbathing
p3229
sV1055
p3230
Vbamboo
p3231
sV1056
p3232
Vacross street
p3233
sV1057
p3234
Vaccident
p3235
sV1058
p3236
V43
p3237
sV1059
p3238
V34
p3239
sV2917
p3240
Vhe fell
p3241
sV1696
p3242
Vmain street
p3243
sV1697
p3244
Vmacaroni
p3245
sV1694
p3246
Vmickey mouse
p3247
sV1695
p3248
Vmall
p3249
sV1692
p3250
Vmixer
p3251
sV1693
p3252
Vmicrosoft
p3253
sV1690
p3254
Vmonster
p3255
sV1691
p3256
Vmoney
p3257
sV2595
p3258
Valuminum foil
p3259
sV1791
p3260
Vwhite and yellow
p3261
sV1698
p3262
Vlong time
p3263
sV1699
p3264
Vlime
p3265
sV1278
p3266
Vsnowboarder
p3267
sV1279
p3268
Vskating
p3269
sV618
p3270
Vducks
p3271
sV619
p3272
Vbow
p3273
sV612
p3274
Vkia
p3275
sV613
p3276
Vjump
p3277
sV610
p3278
Vnecklace
p3279
sV611
p3280
Vlunch
p3281
sV616
p3282
Vfishing
p3283
sV617
p3284
Vfire truck
p3285
sV614
p3286
Vham
p3287
sV615
p3288
Vgreen and white
p3289
sV1795
p3290
Vvines
p3291
sV1794
p3292
Vwallet
p3293
sV1491
p3294
Vsled
p3295
sV2469
p3296
Vhigh chair
p3297
sV1472
p3298
Vus
p3299
sV1473
p3300
Vurinal
p3301
sV1470
p3302
Vvalentine's day
p3303
sV1471
p3304
Vutensils
p3305
sV1476
p3306
Vtub
p3307
sV1477
p3308
Vtrucks
p3309
sV1474
p3310
Vunder armour
p3311
sV1475
p3312
Vtunnel
p3313
sV1478
p3314
Vtowards
p3315
sV1479
p3316
Vtoothpick
p3317
sV1304
p3318
Vmat
p3319
sV1305
p3320
Vlooking out window
p3321
sV1306
p3322
Vlily
p3323
sV1307
p3324
Vleopard
p3325
sV1300
p3326
Vmustache
p3327
sV1301
p3328
Vmusic
p3329
sV1302
p3330
Vmotion
p3331
sV1303
p3332
Vmexican
p3333
sV1497
p3334
Vshopping
p3335
sV1308
p3336
Vlanyard
p3337
sV1309
p3338
Vk
sV498
p3339
Vparasailing
p3340
sV499
p3341
Vlamp
p3342
sV494
p3343
Vunknown
p3344
sV495
p3345
Vturkey
p3346
sV496
p3347
Vstraw
p3348
sV497
p3349
Vplaying frisbee
p3350
sV490
p3351
Vfridge
p3352
sV491
p3353
Vfork and knife
p3354
sV492
p3355
Vclothes
p3356
sV493
p3357
Vcarpet
p3358
sV24
p3359
V0
sV25
p3360
Vpink
p3361
sV26
p3362
Vpizza
p3363
sV27
p3364
Vgray
p3365
sV20
p3366
Vleft
p3367
sV21
p3368
V6
sV22
p3369
Vwood
p3370
sV23
p3371
Vfrisbee
p3372
sV2593
p3373
Vangel
p3374
sV28
p3375
Vkitchen
p3376
sV29
p3377
Vskateboarding
p3378
sV2599
p3379
V9:35
p3380
sV1703
p3381
Vlego
p3382
sV1875
p3383
Vmichigan
p3384
sV1709
p3385
Vjesus
p3386
sV7
Vred
p3387
sV1879
p3388
Vmagnet
p3389
sV2288
p3390
Vunder counter
p3391
sV2289
p3392
Vunder cat
p3393
sV2050
p3394
Vsan diego
p3395
sV2280
p3396
Vverizon
p3397
sV2281
p3398
Vveil
p3399
sV2282
p3400
Vveggie
p3401
sV2283
p3402
Vvacuum
p3403
sV2284
p3404
Vus airways express
p3405
sV2285
p3406
Vups
p3407
sV2286
p3408
Vunion pacific
p3409
sV2287
p3410
Vunder table
p3411
sV972
p3412
Vpitching
p3413
sV2578
p3414
Vbaseball game
p3415
sV2579
p3416
Vbarrier
p3417
sV2576
p3418
Vbathe
p3419
sV2577
p3420
Vbaseball uniform
p3421
sV2574
p3422
Vbehind dog
p3423
sV2056
p3424
Vrhino
p3425
sV2572
p3426
Vbehind truck
p3427
sV2573
p3428
Vbehind him
p3429
sV2570
p3430
Vbike rack
p3431
sV2571
p3432
Vbidet
p3433
sV2378
p3434
Vpipes
p3435
sV2379
p3436
Vphilips
p3437
sV2374
p3438
Vpomegranate
p3439
sV2375
p3440
Vpolaroid
p3441
sV2376
p3442
Vpockets
p3443
sV2377
p3444
Vplay tennis
p3445
sV2370
p3446
Vprint
p3447
sV2371
p3448
Vpotato salad
p3449
sV2372
p3450
Vporch
p3451
sV2373
p3452
Vpony
p3453
sV2594
p3454
Vanalog
p3455
sV1087
p3456
Von sink
p3457
sV2596
p3458
Valcohol
p3459
sV2597
p3460
Vadvertisement
p3461
sV2590
p3462
Vascending
p3463
sV2591
p3464
Vapples and oranges
p3465
sV2592
p3466
Vantenna
p3467
sV1086
p3468
Vpan
p3469
sV2598
p3470
Vabove door
p3471
sV1085
p3472
Vpitbull
p3473
sV1876
p3474
Vmarried
p3475
sV1877
p3476
Vmaroon
p3477
sV1874
p3478
Vmother and child
p3479
sV1084
p3480
Vplanes
p3481
sV1872
p3482
Vnapkins
p3483
sV1873
p3484
Vmuffin
p3485
sV1870
p3486
Vno left turn
p3487
sV1871
p3488
Vnissan
p3489
sV1083
p3490
Vplay
p3491
sV1878
p3492
Vmario
p3493
sV1082
p3494
Vred bull
p3495
sV977
p3496
Vmaple
p3497
sV976
p3498
Vmozzarella
p3499
sV975
p3500
Vnintendo
p3501
sV974
p3502
Vout
p3503
sV973
p3504
Vpanda
p3505
sV1081
p3506
Vright one
p3507
sV971
p3508
Vpolka dots
p3509
sV970
p3510
Vrural
p3511
sV1080
p3512
Vshadows
p3513
sV979
p3514
Vman on left
p3515
sV978
p3516
Vman on right
p3517
sV182
p3518
Vsleeping
p3519
sV183
p3520
Vmirror
p3521
sV180
p3522
Vball
p3523
sV181
p3524
Vbreakfast
p3525
sV186
p3526
Vpeople
p3527
sV187
p3528
Vafternoon
p3529
sV184
p3530
Vasian
p3531
sV185
p3532
Vafrica
p3533
sV2110
p3534
Vlays
p3535
sV2111
p3536
Vlap
p3537
sV188
p3538
Vtoothbrush
p3539
sV189
p3540
Vplate
p3541
sV2114
p3542
Vknee
p3543
sV2115
p3544
Vkid
p3545
sV2116
p3546
Vkeys
p3547
sV1559
p3548
Vcups
p3549
sV2622
p3550
V12:40
p3551
sV2623
p3552
V11:50
p3553
sV2620
p3554
V1920
p3555
sV2621
p3556
V15 feet
p3557
sV2626
p3558
V106
p3559
sV2627
p3560
V1 inch
p3561
sV2624
p3562
V11:15
p3563
sV2625
p3564
V10:00
p3565
sV2628
p3566
V007
p3567
sV2629
p3568
V$350
p3569
sV1919
p3570
Velectronics
p3571
sV1918
p3572
Vemergency
p3573
sV1464
p3574
V36
p3575
sV1911
p3576
Vfern
p3577
sV1910
p3578
Vfeta
p3579
sV1913
p3580
Vfaucet
p3581
sV1912
p3582
Vfeathers
p3583
sV1915
p3584
Vfanta
p3585
sV1914
p3586
Vfarmer
p3587
sV1917
p3588
Vfabric
p3589
sV1916
p3590
Vfancy
p3591
sV869
p3592
Vbags
p3593
sV868
p3594
Vbarn
p3595
sV2113
p3596
Vknife and fork
p3597
sV861
p3598
Vcrane
p3599
sV860
p3600
Vegg
p3601
sV863
p3602
Vcherry
p3603
sV862
p3604
Vcleats
p3605
sV865
p3606
Vchain
p3607
sV864
p3608
Vchandelier
p3609
sV867
p3610
Vbritish airways
p3611
sV866
p3612
Vcamouflage
p3613
sV2024
p3614
Vsurfers
p3615
sV2025
p3616
Vstripe
p3617
sV2026
p3618
Vstreet sign
p3619
sV2027
p3620
Vstir fry
p3621
sV2020
p3622
Vtaking selfie
p3623
sV2021
p3624
Vsword
p3625
sV2022
p3626
Vsuspenders
p3627
sV2023
p3628
Vsurprised
p3629
sV2117
p3630
Vjunk
p3631
sV2028
p3632
Vstatues
p3633
sV2029
p3634
Vstained glass
p3635
sV2758
p3636
Vraisins
p3637
sV2759
p3638
Vquiche
p3639
sV883
p3640
Vpizza cutter
p3641
sV882
p3642
Vracing
p3643
sV881
p3644
Vselfie
p3645
sV880
p3646
Vsmoothie
p3647
sV887
p3648
Voil
p3649
sV886
p3650
Vpiano
p3651
sV885
p3652
Vpier
p3653
sV884
p3654
Vpig
p3655
sV889
p3656
Vmodern
p3657
sV888
p3658
Vnokia
p3659
sV775
p3660
Vtwin
p3661
sV774
p3662
Vunited states
p3663
sV777
p3664
Vtransportation
p3665
sV776
p3666
Vtray
p3667
sV771
p3668
Vwomen
p3669
sV770
p3670
Vbar
p3671
sV773
p3672
Vwaves
p3673
sV772
p3674
Vwhite and brown
p3675
sV779
p3676
Vsandwiches
p3677
sV778
p3678
Vscooter
p3679
sV77
p3680
Vsoccer
p3681
sV76
p3682
Vtable
p3683
sV75
p3684
Vbananas
p3685
sV74
p3686
Vfood
p3687
sV73
p3688
Vflowers
p3689
sV72
p3690
Vbear
p3691
sV71
p3692
V12
p3693
sV70
p3694
Vhat
p3695
sV2972
p3696
Vdoctor
p3697
sV2973
p3698
Vdisney
p3699
sV2970
p3700
Vdoing trick
p3701
sV2971
p3702
Vdog bed
p3703
sV2976
p3704
Vdescending
p3705
sV2977
p3706
Vdandelions
p3707
sV79
p3708
Vfemale
p3709
sV78
p3710
Vliving room
p3711
sV1043
p3712
Vgoalie
p3713
sV1042
p3714
Vgravel
p3715
sV1041
p3716
Vhandicap
p3717
sV1040
p3718
Videntification
p3719
sV1047
p3720
Vdalmatian
p3721
sV1046
p3722
Vfisheye
p3723
sV1045
p3724
Vfoggy
p3725
sV1044
p3726
Vforest
p3727
sV1049
p3728
Vcement
p3729
sV1048
p3730
Vcotton
p3731
sV1681
p3732
Vollie
p3733
sV1680
p3734
Von elephant
p3735
sV1683
p3736
Vnoodles
p3737
sV1682
p3738
Vnorth face
p3739
sV1685
p3740
Vmovie
p3741
sV1684
p3742
Vnathan's
p3743
sV1687
p3744
Vmotor
p3745
sV1686
p3746
Vmountain dew
p3747
sV1689
p3748
Vmoon
p3749
sV1688
p3750
Vmotel
p3751
sV1269
p3752
Vteeth
p3753
sV1268
p3754
Vtennis shoes
p3755
sV669
p3756
Vmonkey
p3757
sV668
p3758
Vnewspaper
p3759
sV667
p3760
Vpaint
p3761
sV1262
p3762
Vwarning
p3763
sV665
p3764
Vserve
p3765
sV664
p3766
Vshoe
p3767
sV1267
p3768
Vtent
p3769
sV1266
p3770
Vtropical
p3771
sV1265
p3772
Vunsure
p3773
sV1264
p3774
Vvideo game
p3775
sV1469
p3776
Vwindsor
p3777
sV1468
p3778
Vyarn
p3779
sV1465
p3780
V12:55
p3781
sV1018
p3782
Vsunlight
p3783
sV1467
p3784
V1000
p3785
sV1466
p3786
V10:20
p3787
sV1461
p3788
V41
p3789
sV1460
p3790
V47
p3791
sV1463
p3792
V39
p3793
sV1019
p3794
Vsouthwest
p3795
sV1317
p3796
Vgravy
p3797
sV1316
p3798
Vhappy birthday
p3799
sV1315
p3800
Vhawk
p3801
sV1314
p3802
Vhazy
p3803
sV1313
p3804
Vhoodie
p3805
sV1312
p3806
Vin basket
p3807
sV1311
p3808
Vin box
p3809
sV1310
p3810
Vipod
p3811
sV1319
p3812
Vgoats
p3813
sV1318
p3814
Vgoogle
p3815
sV2460
p3816
Vin street
p3817
sV1010
p3818
V12:00
p3819
sV1011
p3820
Vyellow and green
p3821
sV319
p3822
Vtriangle
p3823
sV318
p3824
Vbread
p3825
sV313
p3826
Vsandals
p3827
sV312
p3828
Vgrazing
p3829
sV311
p3830
Vtaking picture
p3831
sV310
p3832
Vkeyboard
p3833
sV317
p3834
Vleather
p3835
sV316
p3836
Vstriped
p3837
sV315
p3838
V100
p3839
sV314
p3840
Vinside
p3841
sV2756
p3842
Vred and silver
p3843
sV2757
p3844
Vrays
p3845
sV2754
p3846
Vripe
p3847
sV1335
p3848
Vbud light
p3849
sV2755
p3850
Vring finger
p3851
sV1334
p3852
Vbuses
p3853
sV2752
p3854
Vrollerblades
p3855
sV1337
p3856
Vblinders
p3857
sV2753
p3858
Vroller coaster
p3859
sV1336
p3860
Vblood
p3861
sV2750
p3862
Vroyal navy
p3863
sV2322
p3864
Vsticker
p3865
sV1331
p3866
Vchalk
p3867
sV2698
p3868
Vtarget
p3869
sV1330
p3870
Vchiquita
p3871
sV1333
p3872
Vcanoe
p3873
sV1332
p3874
Vcardinals
p3875
sV2694
p3876
Vteddy roosevelt
p3877
sV2324
p3878
Vsteamed
p3879
sV2908
p3880
Vhitting ball
p3881
sV2692
p3882
Vthai
p3883
sV630
p3884
Vfedora
p3885
sV2461
p3886
Vin stands
p3887
sV2299
p3888
Vtoothpicks
p3889
sV2298
p3890
Vtortilla
p3891
sV2969
p3892
Vdough
p3893
sV2293
p3894
Vtuna
p3895
sV2292
p3896
Vturn right
p3897
sV2291
p3898
Vturquoise
p3899
sV2290
p3900
Vunder
p3901
sV2297
p3902
Vtowing
p3903
sV2296
p3904
Vtricycle
p3905
sV631
p3906
Vdoor
p3907
sV2294
p3908
Vtrophy
p3909
sV2569
p3910
Vbird seed
p3911
sV2568
p3912
Vbirthday cake
p3913
sV2561
p3914
Vboy scouts
p3915
sV2560
p3916
Vbright
p3917
sV2563
p3918
Vborder collie
p3919
sV2562
p3920
Vbowler
p3921
sV2565
p3922
Vboating
p3923
sV2564
p3924
Vbob
p3925
sV2567
p3926
Vblack bear
p3927
sV2566
p3928
Vblending
p3929
sV1521
p3930
Vmushroom
p3931
sV2369
p3932
Vpuerto rico
p3933
sV2368
p3934
Vqantas
p3935
sV2367
p3936
Vraft
p3937
sV2366
p3938
Vrailroad
p3939
sV2365
p3940
Vranch
p3941
sV2364
p3942
Vraspberries
p3943
sV2363
p3944
Vred light
p3945
sV2362
p3946
Vreebok
p3947
sV2361
p3948
Vrefrigerators
p3949
sV2360
p3950
Vrelaxing
p3951
sV2587
p3952
Vback left
p3953
sV2586
p3954
Vbadminton
p3955
sV2585
p3956
Vbaked
p3957
sV2584
p3958
Vbalcony
p3959
sV2583
p3960
Vbanana bread
p3961
sV2582
p3962
Vbananas and oranges
p3963
sV2581
p3964
Vbank
p3965
sV2580
p3966
Vbarrette
p3967
sV2589
p3968
Vasleep
p3969
sV2588
p3970
Vaudi
p3971
sV1861
p3972
Vpacking
p3973
sV1860
p3974
Vpainted
p3975
sV1863
p3976
Von water
p3977
sV1862
p3978
Vonion rings
p3979
sV1865
p3980
Von toilet
p3981
sV1864
p3982
Von tree
p3983
sV1867
p3984
Von his face
p3985
sV1866
p3986
Von plane
p3987
sV1869
p3988
Vno smoking
p3989
sV1868
p3990
Von bike
p3991
sV964
p3992
Vthin
p3993
sV965
p3994
Vswan
p3995
sV966
p3996
Vskull
p3997
sV967
p3998
Vskier
p3999
sV960
p4000
Vvegetable
p4001
sV961
p4002
Vtraffic light
p4003
sV962
p4004
Vtraffic
p4005
sV963
p4006
Vthrowing
p4007
sV968
p4008
Vship
p4009
sV969
p4010
Vsan francisco
p4011
sV2109
p4012
Vleg
p4013
sV2108
p4014
Vlg
p4015
sV2103
p4016
Vlogitech
p4017
sV2102
p4018
Vmail
p4019
sV2101
p4020
Vmarker
p4021
sV2100
p4022
Vmedical
p4023
sV2107
p4024
Vlife vest
p4025
sV2106
p4026
Vlilac
p4027
sV2105
p4028
Vlines
p4029
sV2104
p4030
Vlistening to music
p4031
sV2639
p4032
Vwildebeest
p4033
sV2638
p4034
Vwired
p4035
sV2635
p4036
Vwriting ticket
p4037
sV2634
p4038
Vyahoo
p4039
sV2637
p4040
Vwoman on right
p4041
sV2636
p4042
Vwoman's
p4043
sV2631
p4044
Vyounger
p4045
sV2630
p4046
Vzucchini
p4047
sV2633
p4048
Vyellow and orange
p4049
sV2632
p4050
Vyellow and pink
p4051
sV1560
p4052
Vcontinental
p4053
sV1241
p4054
Vchristmas tree
p4055
sV878
p4056
Vstore
p4057
sV1240
p4058
Vclothing
p4059
sV876
p4060
Vvases
p4061
sV877
p4062
Vstraight
p4063
sV874
p4064
Vwatching tv
p4065
sV875
p4066
Vwagon
p4067
sV872
p4068
Vwest
p4069
sV1243
p4070
Vbuoy
p4071
sV870
p4072
V45
p4073
sV871
p4074
Vx
sV2037
p4075
Vsony ericsson
p4076
sV2036
p4077
Vspace shuttle
p4078
sV2035
p4079
Vspaghetti
p4080
sV1242
p4081
Vcactus
p4082
sV2033
p4083
Vspices
p4084
sV2032
p4085
Vspider
p4086
sV2031
p4087
Vsports
p4088
sV2030
p4089
Vsprite
p4090
sV9
V4
sV1245
p4091
Vbritain
p4092
sV2039
p4093
Vslippers
p4094
sV1244
p4095
Vbroadway
p4096
sV890
p4097
Vlaying
p4098
sV891
p4099
Vkids
p4100
sV892
p4101
Vgothic
p4102
sV893
p4103
Vgermany
p4104
sV894
p4105
Vgarage
p4106
sV1247
p4107
Vbottom right
p4108
sV896
p4109
Vempty
p4110
sV897
p4111
Vdesert
p4112
sV898
p4113
Vdeer
p4114
sV899
p4115
Vcorn
p4116
sV646
p4117
Vkrispy kreme
p4118
sV1249
p4119
Vasparagus
p4120
sV648
p4121
Vdodgers
p4122
sV1537
p4123
Vhuge
p4124
sV1964
p4125
Vbarber shop
p4126
sV1965
p4127
Vbarbecue
p4128
sV1966
p4129
Vbackward
p4130
sV1788
p4131
Vwinnie pooh
p4132
sV1789
p4133
Vwindowsill
p4134
sV768
p4135
Vbun
p4136
sV769
p4137
Vbucket
p4138
sV2961
p4139
Veat it
p4140
sV2960
p4141
Veggplant
p4142
sV2963
p4143
Veaster
p4144
sV2962
p4145
Veaston
p4146
sV762
p4147
Vdaisy
p4148
sV763
p4149
Vcumulus
p4150
sV760
p4151
Veggs
p4152
sV761
p4153
Veast
p4154
sV766
p4155
Vceiling
p4156
sV767
p4157
Vcargo
p4158
sV764
p4159
Vcone
p4160
sV765
p4161
Vcommercial
p4162
sV1962
p4163
Vbatman
p4164
sV1963
p4165
Vbaseball glove
p4166
sV1078
p4167
Vski pole
p4168
sV1079
p4169
Vshearing
p4170
sV1076
p4171
Vsoftball
p4172
sV1077
p4173
Vsoap
p4174
sV1074
p4175
Vsunflower
p4176
sV1075
p4177
Vsquash
p4178
sV1072
p4179
Vsweet
p4180
sV1073
p4181
Vsunflowers
p4182
sV1070
p4183
Vtired
p4184
sV1071
p4185
Vtexas
p4186
sV1678
p4187
Von skateboard
p4188
sV1561
p4189
Vcomputers
p4190
sV1674
p4191
Vover
p4192
sV1675
p4193
Vorange and blue
p4194
sV1676
p4195
Von train
p4196
sV1677
p4197
Von track
p4198
sV1670
p4199
Vpedestrians
p4200
sV1671
p4201
Vpeas
p4202
sV1672
p4203
Vparachute
p4204
sV1673
p4205
Vpacifier
p4206
sV1094
p4207
Vgreen and orange
p4208
sV1095
p4209
Vgrapefruit
p4210
sV1096
p4211
Vgone
p4212
sV1097
p4213
Vfluorescent
p4214
sV1090
p4215
Vmug
p4216
sV1091
p4217
Vkitten
p4218
sV1092
p4219
Vjapanese
p4220
sV1093
p4221
Vin car
p4222
sV674
p4223
Vapartment
p4224
sV675
p4225
Vafrican
p4226
sV676
p4227
Va
sV677
p4228
V35
p4229
sV1098
p4230
Vdugout
p4231
sV1099
p4232
Vcurtain
p4233
sV672
p4234
Vcandle
p4235
sV673
p4236
Vblack and red
p4237
sV1997
p4238
Vwhale
p4239
sV1533
p4240
Vleft one
p4241
sV1418
p4242
Vhelicopter
p4243
sV1419
p4244
Vheels
p4245
sV2490
p4246
Vfood processor
p4247
sV1410
p4248
Vkettle
p4249
sV1411
p4250
Vivy
p4251
sV1412
p4252
Vindoor
p4253
sV1413
p4254
Vin sky
p4255
sV1414
p4256
Vin
p4257
sV1415
p4258
Vhummingbird
p4259
sV1416
p4260
Vhose
p4261
sV1417
p4262
Vhiking
p4263
sV1322
p4264
Vfamily
p4265
sV1323
p4266
Vevergreen
p4267
sV1320
p4268
Vfree
p4269
sV1321
p4270
Vfor fun
p4271
sV1326
p4272
Vdead
p4273
sV1327
p4274
Vcurved
p4275
sV1324
p4276
Vdragon
p4277
sV1325
p4278
Vdenim
p4279
sV1328
p4280
Vcrow
p4281
sV1329
p4282
Vconverse
p4283
sV2494
p4284
Vflock
p4285
sV5
Vwhite
p4286
sV1531
p4287
Vlifeguard
p4288
sV2874
p4289
Vlilacs
p4290
sV1256
p4291
V2009
p4292
sV1257
p4293
V12:30
p4294
sV1254
p4295
V31
p4296
sV1255
p4297
V2:00
p4298
sV1252
p4299
V500
p4300
sV1253
p4301
V42
p4302
sV1250
p4303
Varch
p4304
sV1251
p4305
V9:30
p4306
sV1528
p4307
Vmen's
p4308
sV1529
p4309
Vmagazines
p4310
sV1258
p4311
V10:10
p4312
sV1259
p4313
Vwine tasting
p4314
sV308
p4315
Vrock
p4316
sV309
p4317
Vparking meter
p4318
sV300
p4319
Vrain
p4320
sV301
p4321
Vnew york
p4322
sV302
p4323
Vsink
p4324
sV303
p4325
Vmorning
p4326
sV304
p4327
Vclouds
p4328
sV305
p4329
Vbowl
p4330
sV306
p4331
Vgas
p4332
sV307
p4333
Vumpire
p4334
sV1792
p4335
Vwheels
p4336
sV2254
p4337
Vzipper
p4338
sV2858
p4339
Vmark winterbourne
p4340
sV2575
p4341
Vbeads
p4342
sV2978
p4343
Vcylinder
p4344
sV2979
p4345
Vcute
p4346
sV2475
p4347
Vhawaii
p4348
sV2474
p4349
Vhbo
p4350
sV2974
p4351
Vdish
p4352
sV2975
p4353
Vdigital
p4354
sV2479
p4355
Vgrocery
p4356
sV2478
p4357
Vgym
p4358
sV470
p4359
Venglish
p4360
sV2950
p4361
Vfive star
p4362
sV2990
p4363
Vcracker
p4364
sV2358
p4365
Vrobin
p4366
sV2359
p4367
Vriding elephant
p4368
sV2352
p4369
Vsalt and pepper shakers
p4370
sV2353
p4371
Vsalt and pepper
p4372
sV2350
p4373
Vsavannah
p4374
sV2351
p4375
Vsas
p4376
sV2356
p4377
Vrun
p4378
sV2357
p4379
Vrubber
p4380
sV2354
p4381
Vsalt
p4382
sV471
p4383
Vdiamond
p4384
sV2991
p4385
Vcrab
p4386
sV1898
p4387
Vhugging
p4388
sV1899
p4389
Vhsbc
p4390
sV1894
p4391
Vin tree
p4392
sV1895
p4393
Vin snow
p4394
sV1896
p4395
Vin grass
p4396
sV1443
p4397
Vcelery
p4398
sV1890
p4399
Vlandscape
p4400
sV476
p4401
Vparrot
p4402
sV1892
p4403
Vkayak
p4404
sV1893
p4405
Vinformation
p4406
sV959
p4407
Vvolleyball
p4408
sV958
p4409
Vwoods
p4410
sV2134
p4411
Vhard
p4412
sV2135
p4413
Vhammock
p4414
sV2132
p4415
Vhawaiian
p4416
sV2133
p4417
Vhardwood
p4418
sV2130
p4419
Vheineken
p4420
sV2131
p4421
Vheavy
p4422
sV951
p4423
Vasphalt
p4424
sV950
p4425
Vaustralia
p4426
sV953
p4427
V44
p4428
sV952
p4429
Vanimals
p4430
sV955
p4431
V2013
p4432
sV954
p4433
V29
p4434
sV957
p4435
Vyellow and white
p4436
sV956
p4437
V150
p4438
sV1442
p4439
Vchains
p4440
sV477
p4441
Voval
p4442
sV2648
p4443
Vwater fountain
p4444
sV2649
p4445
Vwashing machine
p4446
sV2640
p4447
Vwildcats
p4448
sV2641
p4449
Vwife
p4450
sV2642
p4451
Vwide angle
p4452
sV2643
p4453
Vwhite with black stripes
p4454
sV2644
p4455
Vwestminster
p4456
sV2645
p4457
Vwestin
p4458
sV2646
p4459
Vwelcome
p4460
sV2647
p4461
Vwax paper
p4462
sV2002
p4463
Vvictoria
p4464
sV2003
p4465
Vvegetarian
p4466
sV2000
p4467
Vwavy
p4468
sV2001
p4469
Vwashing
p4470
sV2006
p4471
Vus air force
p4472
sV1440
p4473
Vclimbing
p4474
sV2004
p4475
Vv
sV2005
p4476
Vus open
p4477
sV2008
p4478
Vunder sink
p4479
sV2009
p4480
Vtying tie
p4481
sV2034
p4482
Vspectators
p4483
sV1790
p4484
Vwillow
p4485
sV2852
p4486
Vmiami
p4487
sV1263
p4488
Vvolkswagen
p4489
sV666
p4490
Vpublic
p4491
sV2176
p4492
Vcolorado
p4493
sV1261
p4494
Vwhite and green
p4495
sV2177
p4496
Vcollage
p4497
sV2910
p4498
Vhit
p4499
sV2911
p4500
Vhilton
p4501
sV1799
p4502
Vtree branch
p4503
sV1260
p4504
Vwii remotes
p4505
sV2914
p4506
Vhello
p4507
sV2915
p4508
Vheaddress
p4509
sV719
p4510
Vobama
p4511
sV718
p4512
Vphones
p4513
sV717
p4514
Vred and green
p4515
sV716
p4516
Vsausage
p4517
sV715
p4518
Vsnowy
p4519
sV714
p4520
Vsurfer
p4521
sV713
p4522
Vt
sV712
p4523
Vtank top
p4524
sV711
p4525
Vtyping
p4526
sV710
p4527
Vvery tall
p4528
sV661
p4529
Vsugar
p4530
sV660
p4531
Vsuitcases
p4532
sV2178
p4533
Vcoleslaw
p4534
sV1069
p4535
Vtissues
p4536
sV1068
p4537
Vtoilets
p4538
sV2179
p4539
Vcloud
p4540
sV1061
p4541
Vyield
p4542
sV1060
p4543
V2010
p4544
sV1063
p4545
Vwhite and gray
p4546
sV1062
p4547
Vwindow sill
p4548
sV1065
p4549
Vvery old
p4550
sV1064
p4551
Vweeds
p4552
sV1067
p4553
Vtop left
p4554
sV1066
p4555
Vtown
p4556
sV1669
p4557
Vpeeing
p4558
sV1668
p4559
Vpelicans
p4560
sV1667
p4561
Vpens
p4562
sV1666
p4563
Vpetting
p4564
sV1665
p4565
Vpitch
p4566
sV1664
p4567
Vplunger
p4568
sV1663
p4569
Vpointing
p4570
sV1662
p4571
Vprinter
p4572
sV1661
p4573
Vproduce
p4574
sV1660
p4575
Vprotest
p4576
sV591
p4577
Vhonda
p4578
sV590
p4579
Vice cream
p4580
sV593
p4581
Vgrapes
p4582
sV592
p4583
Vgray and white
p4584
sV595
p4585
Vdownhill
p4586
sV594
p4587
Vfootball
p4588
sV597
p4589
Vbmw
p4590
sV596
p4591
Vcandles
p4592
sV599
p4593
Vwhite and red
p4594
sV598
p4595
V200
p4596
sV1089
p4597
Vnatural
p4598
sV1088
p4599
Von bench
p4600
sV2828
p4601
Vnorth america
p4602
sV2829
p4603
Vno lights
p4604
sV2824
p4605
Voar
p4606
sV2825
p4607
Vnypd
p4608
sV2826
p4609
Vnot there
p4610
sV2827
p4611
Vnot happy
p4612
sV2820
p4613
Von bear
p4614
sV2821
p4615
Vomelet
p4616
sV2822
p4617
Volive
p4618
sV2823
p4619
Vold fashioned
p4620
sV1409
p4621
Vking
p4622
sV1408
p4623
Vklm
p4624
sV1403
p4625
Vlegos
p4626
sV1402
p4627
Vlid
p4628
sV1401
p4629
Vlogs
p4630
sV1400
p4631
Vmain
p4632
sV1407
p4633
Vknives
p4634
sV1406
p4635
Vl
sV1405
p4636
Vlamb
p4637
sV1404
p4638
Vleaving
p4639
sV1546
p4640
Vfoot
p4641
sV449
p4642
V40
p4643
sV448
p4644
Vblue and yellow
p4645
sV1339
p4646
Vbad
p4647
sV1338
p4648
Vberries
p4649
sV1547
p4650
Vfoam
p4651
sV443
p4652
Vspring
p4653
sV442
p4654
Vfan
p4655
sV441
p4656
Vflag
p4657
sV440
p4658
Vhand
p4659
sV447
p4660
Vfire
p4661
sV446
p4662
Vponytail
p4663
sV445
p4664
Vshoes
p4665
sV444
p4666
Vski
p4667
sV1520
p4668
Vnightstand
p4669
sV1542
p4670
Vgun
p4671
sV1543
p4672
Vgoing
p4673
sV39
p4674
Vskateboard
p4675
sV38
p4676
Vsnow
p4677
sV1540
p4678
Vheater
p4679
sV33
p4680
Vskiing
p4681
sV32
p4682
Vblack and white
p4683
sV31
p4684
V7
sV30
p4685
Vcat
p4686
sV37
p4687
Vwater
p4688
sV36
p4689
Vsurfing
p4690
sV35
p4691
Vdog
p4692
sV34
p4693
V8
sV641
p4694
Vstuffed animal
p4695
sV640
p4696
Vtennis rackets
p4697
sV643
p4698
Vpot
p4699
sV642
p4700
Vriding
p4701
sV645
p4702
Von tracks
p4703
sV644
p4704
Vpepper
p4705
sV647
p4706
Vfedex
p4707
sV1246
p4708
Vboxing
p4709
sV649
p4710
Vdining room
p4711
sV1248
p4712
Vbleachers
p4713
sV2496
p4714
Vfiremen
p4715
sV1539
p4716
Vhill
p4717
sV1538
p4718
Vhoney
p4719
sV339
p4720
Vjumping
p4721
sV338
p4722
V18
p4723
sV335
p4724
Vwilson
p4725
sV334
p4726
Vadidas
p4727
sV337
p4728
Vroad
p4729
sV336
p4730
Vroses
p4731
sV331
p4732
Vpurse
p4733
sV330
p4734
Vsunset
p4735
sV333
p4736
Vcomputer
p4737
sV332
p4738
Von left
p4739
sV1026
p4740
Vpaddle
p4741
sV2118
p4742
Vjumped
p4743
sV8
Vblue
p4744
sV2119
p4745
Vjetblue
p4746
sV1462
p4747
V4 feet
p4748
sV2854
p4749
Vmedicine
p4750
sV1991
p4751
Vyak
p4752
sV2345
p4753
Vsewer
p4754
sV2344
p4755
Vshark
p4756
sV2347
p4757
Vsedan
p4758
sV2346
p4759
Vseeds
p4760
sV2341
p4761
Vsingles
p4762
sV2340
p4763
Vskateboard park
p4764
sV2343
p4765
Vshaved
p4766
sV2342
p4767
Vshingles
p4768
sV2349
p4769
Vschnauzer
p4770
sV2348
p4771
Vseaweed
p4772
sV1889
p4773
Vlaundry
p4774
sV1888
p4775
Vlexus
p4776
sV1887
p4777
Vlicense plate
p4778
sV1886
p4779
Vlife jacket
p4780
sV1885
p4781
Vlighting
p4782
sV1884
p4783
Vlittle girl
p4784
sV1883
p4785
Vlizard
p4786
sV1882
p4787
Vlogo
p4788
sV1881
p4789
Vmac
p4790
sV1880
p4791
Vmagazine
p4792
sV2121
p4793
Vit's raining
p4794
sV2120
p4795
Vjelly
p4796
sV2123
p4797
Vin corner
p4798
sV2122
p4799
Vin middle
p4800
sV2125
p4801
Vhtc
p4802
sV2124
p4803
Vhuman
p4804
sV948
p4805
Vbehind fence
p4806
sV949
p4807
Vbaseball field
p4808
sV946
p4809
Vbowling
p4810
sV947
p4811
Vbib
p4812
sV944
p4813
Vbull
p4814
sV945
p4815
Vbritish
p4816
sV942
p4817
Vcontroller
p4818
sV943
p4819
Vcan
p4820
sV940
p4821
Vdry
p4822
sV941
p4823
Vdirt bike
p4824
sV2410
p4825
Vno entry
p4826
sV2659
p4827
Vvelvet
p4828
sV2658
p4829
Vvenice
p4830
sV2653
p4831
Vvw
p4832
sV2652
p4833
Vwaffle
p4834
sV2651
p4835
Vwalgreens
p4836
sV2650
p4837
Vwar
p4838
sV2657
p4839
Vvests
p4840
sV2656
p4841
Vvictorian
p4842
sV2655
p4843
Vvodka
p4844
sV2654
p4845
Vvolvo
p4846
sV133
p4847
Vglasses
p4848
sV132
p4849
Vblonde
p4850
sV131
p4851
Vskis
p4852
sV130
p4853
Vstripes
p4854
sV137
p4855
Vcell phone
p4856
sV136
p4857
Vchocolate
p4858
sV135
p4859
Vup
p4860
sV134
p4861
V15
p4862
sV139
p4863
Vnike
p4864
sV138
p4865
V13
p4866
sV2019
p4867
Vtell time
p4868
sV2018
p4869
Vtents
p4870
sV2015
p4871
Vtires
p4872
sV2014
p4873
Vto eat
p4874
sV2017
p4875
Vthanksgiving
p4876
sV2016
p4877
Vtigers
p4878
sV2011
p4879
Vtraffic lights
p4880
sV2010
p4881
Vtusk
p4882
sV2013
p4883
Vtools
p4884
sV2012
p4885
Vtoronto
p4886
sV1793
p4887
Vwashington monument
p4888
sV2112
p4889
Vknife and spoon
p4890
sV3000
p4891
Vclown
p4892
sV2903
p4893
Vicing
p4894
sV2902
p4895
Vin bushes
p4896
sV2901
p4897
Vin case
p4898
sV2900
p4899
Vin dish
p4900
sV708
p4901
Vwatermelon
p4902
sV709
p4903
Vwashington
p4904
sV2905
p4905
Vhula hoop
p4906
sV2904
p4907
Vhyundai
p4908
sV704
p4909
V38
p4910
sV705
p4911
Vwork
p4912
sV706
p4913
Vwooden
p4914
sV707
p4915
Vwicker
p4916
sV700
p4917
Vbroken
p4918
sV701
p4919
Vbell
p4920
sV702
p4921
Vbehind
p4922
sV703
p4923
Vbatter
p4924
sV88
p4925
Vhot dog
p4926
sV89
p4927
Vtennis racket
p4928
sV82
p4929
Vbus
p4930
sV83
p4931
Vzebra
p4932
sV80
p4933
Vbench
p4934
sV81
p4935
Vcow
p4936
sV86
p4937
Vkites
p4938
sV87
p4939
V11
p4940
sV84
p4941
Vsnowboarding
p4942
sV85
p4943
Vmale
p4944
sV1658
p4945
Vrackets
p4946
sV1659
p4947
Vquilt
p4948
sV1652
p4949
Vroast beef
p4950
sV1388
p4951
Vpajamas
p4952
sV1650
p4953
Vrugby
p4954
sV1651
p4955
Vrottweiler
p4956
sV1656
p4957
Vred velvet
p4958
sV1657
p4959
Vrailroad crossing
p4960
sV1654
p4961
Vremote control
p4962
sV1389
p4963
Von stove
p4964
sV586
p4965
Vonions
p4966
sV587
p4967
Vmen
p4968
sV584
p4969
Vsiamese
p4970
sV585
p4971
Vpainting
p4972
sV582
p4973
Vw
sV583
p4974
Vski lift
p4975
sV580
p4976
V21
p4977
sV581
p4978
Vwool
p4979
sV1984
p4980
V2 hours
p4981
sV588
p4982
Vlighthouse
p4983
sV589
p4984
Vitaly
p4985
sV1633
p4986
Vsnowing
p4987
sV2839
p4988
Vmustard and ketchup
p4989
sV2838
p4990
Vmuzzle
p4991
sV2837
p4992
Vname tags
p4993
sV1982
p4994
V2:05
p4995
sV2835
p4996
Vneon
p4997
sV2834
p4998
Vnew orleans
p4999
sV2833
p5000
Vnew york city
p5001
sV2832
p5002
Vnew york yankees
p5003
sV2831
p5004
Vnew zealand
p5005
sV1983
p5006
V2008
p5007
sV1436
p5008
Vcrib
p5009
sV1437
p5010
Vcorona
p5011
sV1434
p5012
Vcroissant
p5013
sV1435
p5014
Vcrocs
p5015
sV1432
p5016
Vdetroit
p5017
sV1433
p5018
Vcurtains
p5019
sV1430
p5020
Vdishes
p5021
sV1431
p5022
Vdirection
p5023
sV1380
p5024
Vradio
p5025
sV1981
p5026
V2:35
p5027
sV1438
p5028
Vcookie
p5029
sV1381
p5030
Vr
sV1349
p5031
Vwords
p5032
sV1541
p5033
Vhanging
p5034
sV1348
p5035
V2:50
p5036
sV459
p5037
Von desk
p5038
sV450
p5039
Vwater skiing
p5040
sV451
p5041
Vurban
p5042
sV452
p5043
Vswimming
p5044
sV1343
p5045
Vabove toilet
p5046
sV1344
p5047
V70
p5048
sV1345
p5049
V6:00
p5050
sV456
p5051
Vpictures
p5052
sV457
p5053
Vpepsi
p5054
sV656
p5055
Vback
p5056
sV657
p5057
Vart
p5058
sV654
p5059
Vbandana
p5060
sV655
p5061
Vbakery
p5062
sV652
p5063
Vbig
p5064
sV653
p5065
Vbasketball
p5066
sV650
p5067
Vcrosswalk
p5068
sV651
p5069
Vcigarette
p5070
sV1508
p5071
Vprivate
p5072
sV1509
p5073
Vpond
p5074
sV658
p5075
Vvisor
p5076
sV516
p5077
Voctagon
p5078
sV1992
p5079
Vwomen's
p5080
sV2127
p5081
Vhimself
p5082
sV2126
p5083
Vhome plate
p5084
sV2129
p5085
Vheinz
p5086
sV2128
p5087
Vhighway
p5088
sV2815
p5089
Von hill
p5090
sV2814
p5091
Von horse
p5092
sV1376
p5093
Vroof
p5094
sV322
p5095
Vbaby
p5096
sV323
p5097
Vwire
p5098
sV320
p5099
Vlights
p5100
sV321
p5101
Vdrinking
p5102
sV326
p5103
Vblanket
p5104
sV327
p5105
Vsalad
p5106
sV324
p5107
Vreading
p5108
sV325
p5109
Vketchup
p5110
sV328
p5111
Vrope
p5112
sV329
p5113
Vchina
p5114
sV2819
p5115
Von boat
p5116
sV1340
p5117
Vbackwards
p5118
sV2818
p5119
Von bread
p5120
sV2330
p5121
Vsquirrel
p5122
sV2331
p5123
Vspiral
p5124
sV2332
p5125
Vspeaking
p5126
sV2333
p5127
Vsoldiers
p5128
sV2334
p5129
Vsnowflakes
p5130
sV2335
p5131
Vsnowbird
p5132
sV2336
p5133
Vslow down
p5134
sV1594
p5135
V49
p5136
sV2338
p5137
Vskeleton
p5138
sV2339
p5139
Vskatepark
p5140
sV1341
p5141
Vavocado
p5142
sV1995
p5143
Vwheelchair
p5144
sV2958
p5145
Vfaces
p5146
sV2959
p5147
Vexpert
p5148
sV1592
p5149
V4:50
p5150
sV2488
p5151
Vfountain
p5152
sV2489
p5153
Vfood truck
p5154
sV2486
p5155
Vfunny
p5156
sV2487
p5157
Vfront of train
p5158
sV2484
p5159
Vgazelle
p5160
sV2485
p5161
Vfuton
p5162
sV2482
p5163
Vgraduation
p5164
sV2483
p5165
Vgirl on right
p5166
sV2480
p5167
Vgrilled cheese
p5168
sV1598
p5169
V2:10
p5170
sV2248
p5171
V11:40
p5172
sV2249
p5173
V11:00
p5174
sV2244
p5175
V1:10
p5176
sV2245
p5177
V1:05
p5178
sV2246
p5179
V1900
p5180
sV2247
p5181
V12 feet
p5182
sV2240
p5183
V300
p5184
sV2241
p5185
V2:20
p5186
sV2242
p5187
V25 cents
p5188
sV2243
p5189
V1:15
p5190
sV995
p5191
Vchips
p5192
sV994
p5193
Vclock tower
p5194
sV997
p5195
Vchairs
p5196
sV996
p5197
Vcheesecake
p5198
sV991
p5199
Vcupcake
p5200
sV990
p5201
Vcurly
p5202
sV993
p5203
Vcorner
p5204
sV992
p5205
Vcucumber
p5206
sV999
p5207
Vcardboard
p5208
sV998
p5209
Vcenter
p5210
sV120
p5211
Vglass
p5212
sV121
p5213
Vbike
p5214
sV122
p5215
Vbeer
p5216
sV123
p5217
Vchinese
p5218
sV124
p5219
Vsuitcase
p5220
sV125
p5221
Vsitting
p5222
sV126
p5223
Vold
p5224
sV127
p5225
Vsandwich
p5226
sV128
p5227
Vcarrots
p5228
sV129
p5229
Vboat
p5230
sV2068
p5231
Vpedestrian
p5232
sV2069
p5233
Vpeaches
p5234
sV2798
p5235
Vpaddle boarding
p5236
sV2799
p5237
Vpackages
p5238
sV2060
p5239
Vprince
p5240
sV2061
p5241
Vposts
p5242
sV2062
p5243
Vplanter
p5244
sV2063
p5245
Vpipe
p5246
sV2064
p5247
Vpink and blue
p5248
sV2065
p5249
Vpicnic table
p5250
sV2066
p5251
Vphoto
p5252
sV2067
p5253
Vperson on left
p5254
sV2666
p5255
Vus airways
p5256
sV2667
p5257
Vurinals
p5258
sV2664
p5259
Vuse toilet
p5260
sV2665
p5261
Vus bank
p5262
sV2662
p5263
Vusing laptop
p5264
sV2663
p5265
Vusing computer
p5266
sV2660
p5267
Vvehicles
p5268
sV2661
p5269
Vvacation
p5270
sV1748
p5271
Vcoats
p5272
sV2668
p5273
Vunited kingdom
p5274
sV1749
p5275
Vclydesdale
p5276
sV2938
p5277
Vgame controller
p5278
sV2939
p5279
Vfrontier
p5280
sV2936
p5281
Vgenetics
p5282
sV2937
p5283
Vgarlic
p5284
sV2934
p5285
Vgetting food
p5286
sV2935
p5287
Vgeorge
p5288
sV2932
p5289
Vgirl on left
p5290
sV2933
p5291
Vginger
p5292
sV2930
p5293
Vgnome
p5294
sV2931
p5295
Vglaze
p5296
sV1645
p5297
Vseattle
p5298
sV1644
p5299
Vsewing
p5300
sV1647
p5301
Vsalmon
p5302
sV1646
p5303
Vsanta hat
p5304
sV1641
p5305
Vshut
p5306
sV1640
p5307
Vsideways
p5308
sV1643
p5309
Vshih tzu
p5310
sV1642
p5311
Vshore
p5312
sV1649
p5313
Vsafari
p5314
sV1648
p5315
Vsail
p5316
sV1742
p5317
Vdaffodils
p5318
sV1743
p5319
Vcopyright
p5320
sV579
p5321
V22
p5322
sV578
p5323
Vair
p5324
sV573
p5325
Vdusk
p5326
sV572
p5327
Vfake
p5328
sV571
p5329
Vhit ball
p5330
sV570
p5331
Vindian
p5332
sV577
p5333
Vbaseball bat
p5334
sV576
p5335
Vbracelet
p5336
sV575
p5337
Vchopsticks
p5338
sV574
p5339
Vdress
p5340
sV2808
p5341
Von shelves
p5342
sV2809
p5343
Von runway
p5344
sV2802
p5345
Vopposite
p5346
sV1209
p5347
Vmotorola
p5348
sV2800
p5349
Vottoman
p5350
sV2801
p5351
Vorange and gray
p5352
sV2806
p5353
Von tray
p5354
sV2807
p5355
Von suitcase
p5356
sV2804
p5357
Vone in middle
p5358
sV1208
p5359
Voctopus
p5360
sV1421
p5361
Vgreen and red
p5362
sV1420
p5363
Vhaircut
p5364
sV1423
p5365
Vfor sale
p5366
sV1422
p5367
Vfruits
p5368
sV1425
p5369
Vflorida
p5370
sV1424
p5371
Vflour
p5372
sV1427
p5373
Vflickr
p5374
sV1426
p5375
Vflip
p5376
sV1429
p5377
Vdon't know
p5378
sV1428
p5379
Vexit
p5380
sV2156
p5381
Vfires
p5382
sV731
p5383
Vcatching
p5384
sV730
p5385
Vchicago
p5386
sV733
p5387
V55
p5388
sV732
p5389
Vc
sV735
p5390
Vworking
p5391
sV734
p5392
Vyellow and red
p5393
sV737
p5394
Vvertical
p5395
sV736
p5396
Vwhite and black
p5397
sV739
p5398
Vtraveling
p5399
sV738
p5400
Vvanilla
p5401
sV2403
p5402
Von napkin
p5403
sV1359
p5404
Vties
p5405
sV1358
p5406
Vtissue
p5407
sV469
p5408
Vlanding
p5409
sV468
p5410
Von bed
p5411
sV1353
p5412
Vtravel
p5413
sV1352
p5414
Vvisibility
p5415
sV1351
p5416
Vwallpaper
p5417
sV1350
p5418
Vwhite and orange
p5419
sV461
p5420
Vflip flops
p5421
sV1356
p5422
Vtoward
p5423
sV463
p5424
Vtalking
p5425
sV462
p5426
Vtea
p5427
sV1273
p5428
Vtablet
p5429
sV2158
p5430
Vfestival
p5431
sV2159
p5432
Vfacebook
p5433
sV1519
p5434
Vnotebook
p5435
sV1518
p5436
Vone in front
p5437
sV1515
p5438
Vpapers
p5439
sV1514
p5440
Vpeach
p5441
sV1517
p5442
Vorange and black
p5443
sV1516
p5444
Vorchid
p5445
sV1274
p5446
Vsurprise
p5447
sV1510
p5448
Vplates
p5449
sV1513
p5450
Vpedestrian crossing
p5451
sV1512
p5452
Vpigtails
p5453
sV1735
p5454
Vdome
p5455
sV1275
p5456
Vsupreme
p5457
sV357
p5458
Vdesk
p5459
sV356
p5460
Velectric
p5461
sV355
p5462
Vhouse
p5463
sV354
p5464
Von plate
p5465
sV353
p5466
Vpassenger
p5467
sV352
p5468
Vshorts
p5469
sV351
p5470
Vskate park
p5471
sV350
p5472
Vdell
p5473
sV359
p5474
V17
p5475
sV358
p5476
Vbook
p5477
sV2323
p5478
Vstem
p5479
sV1447
p5480
Vbrushing
p5481
sV2321
p5482
Vstill
p5483
sV2320
p5484
Vstrike
p5485
sV2327
p5486
Vstained
p5487
sV2326
p5488
Vstands
p5489
sV2325
p5490
Vstatue of liberty
p5491
sV1446
p5492
Vbudweiser
p5493
sV2329
p5494
Vstadium
p5495
sV2328
p5496
Vstagecoach
p5497
sV1445
p5498
Vcanopy
p5499
sV289
p5500
Vrainbow
p5501
sV288
p5502
Vsmall
p5503
sV1444
p5504
Vcaptivity
p5505
sV2830
p5506
Vno 1
p5507
sV281
p5508
Vapples
p5509
sV280
p5510
Vchurch
p5511
sV283
p5512
Vsurfboards
p5513
sV282
p5514
Vtomato
p5515
sV285
p5516
Vin air
p5517
sV284
p5518
Vmiddle
p5519
sV287
p5520
Vvase
p5521
sV286
p5522
Vdouble decker
p5523
sV1441
p5524
Vcircus
p5525
sV1116
p5526
Vbank of america
p5527
sV263
p5528
Vfloor
p5529
sV262
p5530
Vresting
p5531
sV261
p5532
Vcatcher
p5533
sV260
p5534
Vmicrowave
p5535
sV267
p5536
V24
p5537
sV266
p5538
Vground
p5539
sV265
p5540
Vrocks
p5541
sV264
p5542
Vtowel
p5543
sV269
p5544
Vmilk
p5545
sV268
p5546
Vpepperoni
p5547
sV1562
p5548
Vcoming
p5549
sV2499
p5550
Vfarmers market
p5551
sV2498
p5552
Vfeeder
p5553
sV1563
p5554
Vcobblestone
p5555
sV1980
p5556
V2:55
p5557
sV2491
p5558
Vfolded
p5559
sV1564
p5560
Vcoat
p5561
sV2493
p5562
Vfluffy
p5563
sV2492
p5564
Vfocus
p5565
sV2495
p5566
Vfirst base
p5567
sV2192
p5568
Vbutton up
p5569
sV2497
p5570
Vfireman
p5571
sV1565
p5572
Vclub
p5573
sV2193
p5574
Vbutterflies
p5575
sV1566
p5576
Vclocks
p5577
sV2259
p5578
Vwrench
p5579
sV2258
p5580
Vwrist
p5581
sV2257
p5582
Vy
sV2256
p5583
Vyorkie
p5584
sV2255
p5585
Vzig zag
p5586
sV1567
p5587
Vcherries
p5588
sV2253
p5589
V10 minutes
p5590
sV2252
p5591
V10 years
p5592
sV2251
p5593
V10:05
p5594
sV2250
p5595
V10:50
p5596
sV2477
p5597
Vhalf full
p5598
sV2476
p5599
Vhallway
p5600
sV988
p5601
Vdark
p5602
sV989
p5603
Vdaisies
p5604
sV2473
p5605
Vhebrew
p5606
sV2472
p5607
Vherd
p5608
sV2471
p5609
Vherself
p5610
sV2470
p5611
Vhiding
p5612
sV982
p5613
Vkite flying
p5614
sV983
p5615
Vin field
p5616
sV980
p5617
Vm
sV981
p5618
Vlilies
p5619
sV986
p5620
Vfarm
p5621
sV987
p5622
Vdo not enter
p5623
sV984
p5624
Vice
p5625
sV985
p5626
Vhospital
p5627
sV115
p5628
Vred and white
p5629
sV114
p5630
Vcar
p5631
sV117
p5632
Vpalm
p5633
sV116
p5634
Vfork
p5635
sV111
p5636
Vcheese
p5637
sV110
p5638
Vmetal
p5639
sV113
p5640
Vbedroom
p5641
sV112
p5642
V20
p5643
sV119
p5644
Vcows
p5645
sV118
p5646
Vplane
p5647
sV2785
p5648
Vpecans
p5649
sV2784
p5650
Vpee
p5651
sV2787
p5652
Vpeace sign
p5653
sV2786
p5654
Vpeanut butter and jelly
p5655
sV2781
p5656
Vpesto
p5657
sV2780
p5658
Vpet
p5659
sV2783
p5660
Vpeel
p5661
sV2782
p5662
Vpeople walking
p5663
sV2789
p5664
Vpaw
p5665
sV2788
p5666
Vpaw prints
p5667
sV1797
p5668
Vuk
p5669
sV2079
p5670
Vorange and green
p5671
sV2078
p5672
Vorange and yellow
p5673
sV2073
p5674
Vparent and child
p5675
sV2072
p5676
Vpartly cloudy
p5677
sV2071
p5678
Vpastry
p5679
sV2070
p5680
Vpc
p5681
sV2077
p5682
Voranges and bananas
p5683
sV2076
p5684
Vox
p5685
sV2075
p5686
Vpacific
p5687
sV2074
p5688
Vpaintings
p5689
sV1796
p5690
Vvery big
p5691
sV2671
p5692
Vty
p5693
sV2670
p5694
Vu turn
p5695
sV2673
p5696
Vturtle
p5697
sV2672
p5698
Vtwins
p5699
sV2675
p5700
Vtulip
p5701
sV2674
p5702
Vturban
p5703
sV2677
p5704
Vtripod
p5705
sV2676
p5706
Vtugboat
p5707
sV2679
p5708
Vtricks
p5709
sV2678
p5710
Vtrip
p5711
sV2929
p5712
Vgoal
p5713
sV2928
p5714
Vgrain
p5715
sV2921
p5716
Vhandicapped
p5717
sV2920
p5718
Vhangar
p5719
sV2923
p5720
Vh
sV2922
p5721
Vham and cheese
p5722
sV2925
p5723
Vguest
p5724
sV2924
p5725
Vguy
p5726
sV2927
p5727
Vgreen and purple
p5728
sV2926
p5729
Vgrooming
p5730
sV2907
p5731
Vhomemade
p5732
sV2906
p5733
Vhorizontally
p5734
sV1630
p5735
Vsquatting
p5736
sV1631
p5737
Vspace
p5738
sV1632
p5739
Vsoon
p5740
sV484
p5741
Vrunning
p5742
sV1634
p5743
Vsmooth
p5744
sV1635
p5745
Vsmaller
p5746
sV1636
p5747
Vskiers
p5748
sV1637
p5749
Vski resort
p5750
sV1638
p5751
Vsize
p5752
sV1639
p5753
Vsinging
p5754
sV1988
p5755
V11:20
p5756
sV1989
p5757
V10:30
p5758
sV2909
p5759
Vhit tennis ball
p5760
sV568
p5761
Vpen
p5762
sV569
p5763
Vmcdonald's
p5764
sV2817
p5765
Von bridge
p5766
sV2816
p5767
Von door
p5768
sV2811
p5769
Von phone
p5770
sV2810
p5771
Von refrigerator
p5772
sV2813
p5773
Von laptop
p5774
sV2812
p5775
Von motorcycle
p5776
sV560
p5777
Vcoke
p5778
sV561
p5779
Vclean
p5780
sV562
p5781
Vchain link
p5782
sV563
p5783
Vbeef
p5784
sV564
p5785
Vabove
p5786
sV565
p5787
Vwine glass
p5788
sV566
p5789
Vsurf
p5790
sV567
p5791
Vspanish
p5792
sV1188
p5793
Vvans
p5794
sV1189
p5795
Vuniforms
p5796
sV1186
p5797
Vwaving
p5798
sV1187
p5799
Vwalk
p5800
sV1184
p5801
V3:00
p5802
sV1185
p5803
Vwindsurfing
p5804
sV1182
p5805
Vamerica
p5806
sV1183
p5807
V66
p5808
sV1180
p5809
Vballoon
p5810
sV1181
p5811
Varm
p5812
sV726
p5813
Vfoil
p5814
sV727
p5815
Vfireplace
p5816
sV724
p5817
Vgerman shepherd
p5818
sV725
p5819
Vfull
p5820
sV722
p5821
Vladder
p5822
sV723
p5823
Vhats
p5824
sV720
p5825
Vnighttime
p5826
sV721
p5827
Vmoving
p5828
sV1744
p5829
Vcopper
p5830
sV1745
p5831
Vcooked
p5832
sV1746
p5833
Vconductor
p5834
sV1747
p5835
Vcoins
p5836
sV1740
p5837
Vdesktop
p5838
sV1741
p5839
Vdecorative
p5840
sV728
p5841
Vcross country
p5842
sV729
p5843
Vchihuahua
p5844
sV1164
p5845
Vfun
p5846
sV1165
p5847
Vfrosting
p5848
sV1166
p5849
Vfriend
p5850
sV1167
p5851
Vfirst
p5852
sV1160
p5853
Vhearts
p5854
sV1161
p5855
Vhands
p5856
sV1162
p5857
Vgrilled
p5858
sV1163
p5859
Vgirls
p5860
sV1168
p5861
Vf
sV1169
p5862
Veyes
p5863
sV472
p5864
Vcollar
p5865
sV2913
p5866
Vhero
p5867
sV48
p5868
Veating
p5869
sV49
p5870
Vbroccoli
p5871
sV46
p5872
Vpurple
p5873
sV47
p5874
Vgiraffe
p5875
sV44
p5876
Vkite
p5877
sV45
p5878
Vgrass
p5879
sV42
p5880
Vsurfboard
p5881
sV43
p5882
Vman
p5883
sV40
p5884
V10
p5885
sV41
p5886
Vwii
p5887
sV1568
p5888
Vcat and dog
p5889
sV1569
p5890
Vcastle
p5891
sV1298
p5892
Vnose
p5893
sV1299
p5894
Vmutt
p5895
sV1292
p5896
Vpenguin
p5897
sV1293
p5898
Vpedestal
p5899
sV1290
p5900
Vpink and yellow
p5901
sV1291
p5902
Vphotography
p5903
sV1296
p5904
Vnuts
p5905
sV1297
p5906
Vnot very
p5907
sV1294
p5908
Vpants
p5909
sV1295
p5910
Volympics
p5911
sV1713
p5912
Vin back
p5913
sV474
p5914
Vtrash
p5915
sV1712
p5916
Viphone
p5917
sV475
p5918
Vraining
p5919
sV1711
p5920
Viron
p5921
sV2425
p5922
Vme
p5923
sV1710
p5924
Vjackets
p5925
sV1717
p5926
Vhammer time
p5927
sV1716
p5928
Vharbor
p5929
sV1715
p5930
Vhorse racing
p5931
sV1201
p5932
Vprivacy
p5933
sV1714
p5934
Vhundreds
p5935
sV1366
p5936
Vstand
p5937
sV473
p5938
Vat camera
p5939
sV1364
p5940
Vsweatshirt
p5941
sV1365
p5942
Vstyrofoam
p5943
sV1362
p5944
Vteddy
p5945
sV1363
p5946
Vswing
p5947
sV1360
p5948
Vthomas
p5949
sV1361
p5950
Vtelevision
p5951
sV478
p5952
Vlaying down
p5953
sV479
p5954
Vgood
p5955
sV2916
p5956
Vhe's not
p5957
sV1368
p5958
Vspiderman
p5959
sV1369
p5960
Vsniffing
p5961
s.