(dp1
Vraining
p2
I475
sVfarmers market
p3
I2499
sVhats
p4
I723
sVyellow
p5
I12
sVprotest
p6
I1660
sVwoods
p7
I958
sVsleep
p8
I1136
sVasian
p9
I184
sVrailing
p10
I842
sVzig zag
p11
I2255
sVskeleton
p12
I2338
sVtrolley
p13
I2295
sVmuzzle
p14
I2838
sVfeeding
p15
I1551
sVpointing
p16
I1663
sVelectricity
p17
I377
sVswan
p18
I965
sVbike
p19
I121
sVunder
p20
I2290
sVwelcome
p21
I2646
sVflip flops
p22
I461
sVwreath
p23
I2260
sVby window
p24
I2551
sVdeli
p25
I2514
sVblanket
p26
I326
sVdell
p27
I350
sVvase
p28
I287
sVhelmet
p29
I91
sVhome plate
p30
I2126
sVfireplace
p31
I727
sVvitamin water
p32
I2275
sVblue and pink
p33
I1959
sVschool
p34
I453
sVsnowflakes
p35
I2334
sVparrot
p36
I476
sVwooden
p37
I706
sVbehind dog
p38
I2574
sVups
p39
I2285
sVtrash can
p40
I434
sVbicycle
p41
I248
sVquilt
p42
I1659
sVtired
p43
I1070
sVphones
p44
I718
sVhanging
p45
I1541
sVbacon
p46
I620
sVjapanese
p47
I1092
sVchef
p48
I502
sVdish
p49
I2974
sVsecond
p50
I2045
sVstreet
p51
I165
sVcactus
p52
I1242
sVpanda
p53
I973
sVmonster
p54
I1690
sVblue
p55
I8
sVsesame
p56
I1498
sVred light
p57
I2363
sVpuppy
p58
I2761
sVcooking
p59
I173
sVbikini
p60
I829
sVasia
p61
I550
sVlights
p62
I320
sVabove
p63
I564
sVsideways
p64
I1640
sVnew
p65
I1031
sVnet
p66
I609
sVdisney
p67
I2973
sVhelmets
p68
I399
sVhero
p69
I2913
sV5:45
p70
I2229
sVpancakes
p71
I1149
sVmen
p72
I587
sVhundreds
p73
I1714
sVsnowbird
p74
I2335
sVon train
p75
I1676
sVprotection
p76
I455
sVchina
p77
I329
sVcart
p78
I827
sV100
p79
I315
sVcardboard
p80
I999
sV106
p81
I2626
sVmozzarella
p82
I976
sVdry
p83
I940
sVkids
p84
I891
sVluggage
p85
I214
sVleaves
p86
I242
sVsnowing
p87
I1633
sVsmoke
p88
I393
sVmilitary
p89
I517
sVbike rack
p90
I2570
sVstraw
p91
I496
sVfireworks
p92
I2952
sVstrap
p93
I1819
sVsliced
p94
I1197
sVstatue of liberty
p95
I2325
sVjackets
p96
I1710
sVcaptive
p97
I2189
sVon phone
p98
I2811
sVlandscape
p99
I1890
sVstar wars
p100
I2709
sVplow
p101
I1849
sVarmy
p102
I909
sVsweater
p103
I803
sVcoins
p104
I1747
sVmusic
p105
I1301
sVcalm
p106
I431
sVriding horses
p107
I1833
sVvery fast
p108
I2279
sVstrike
p109
I2320
sVdairy
p110
I2519
sVsony ericsson
p111
I2037
sVyahoo
p112
I2634
sVfrisbee golf
p113
I2146
sVphone
p114
I52
sVwarm
p115
I622
sVfor fun
p116
I1321
sVme
p117
I2425
sVword
p118
I2263
sVwork
p119
I705
sVroof
p120
I1376
sVmovies
p121
I2842
sVblack and blue
p122
I1961
sVplunger
p123
I1664
sVdecorative
p124
I1741
sVcross street
p125
I2985
sVvodka
p126
I2655
sVit's not
p127
I2894
sVflorida
p128
I1425
sVhebrew
p129
I2473
sVindia
p130
I489
sVhoney
p131
I1538
sVgreen beans
p132
I2139
sVcaution
p133
I1107
sVcut off
p134
I2980
sVchevy
p135
I2537
sVend
p136
I2161
sV4 feet
p137
I1462
sVin suitcase
p138
I2459
sVtravel
p139
I1353
sVdrying
p140
I2965
sVnuts
p141
I1296
sV6 inches
p142
I2607
sVhappy birthday
p143
I1316
sVmachine
p144
I2864
sVfar
p145
I1552
sVhot
p146
I439
sVqueen elizabeth
p147
I2760
sVboats
p148
I481
sVgate
p149
I2144
sVaudi
p150
I2588
sVbeach
p151
I64
sV7:45
p152
I2603
sVpizza
p153
I26
sVbriefcase
p154
I1956
sVladder
p155
I722
sVlab
p156
I429
sVjumping
p157
I339
sVpresident
p158
I2768
sVcell phone
p159
I137
sVwomen's
p160
I1992
sVarch
p161
I1250
sVheaddress
p162
I2915
sVshirt
p163
I369
sVryanair
p164
I2747
sVman on right
p165
I978
sVin bowl
p166
I629
sVcroissant
p167
I1434
sVlost
p168
I2867
sVharley
p169
I788
sVowls
p170
I2393
sVcheckerboard
p171
I2539
sVgreen
p172
I10
sVscarf
p173
I465
sVambulance
p174
I1970
sV1 foot
p175
I1607
sV1000
p176
I1467
sVwing
p177
I2265
sVwind
p178
I394
sVwine
p179
I68
sVsalon
p180
I2744
sVoffice
p181
I375
sVcheese
p182
I111
sVmuffin
p183
I1873
sVover
p184
I1674
sVbaseball uniform
p185
I2577
sVlondon
p186
I270
sVoven
p187
I364
sVkeyboard
p188
I310
sVplastic wrap
p189
I1851
sVjapan
p190
I542
sVby water
p191
I2552
sVchihuahua
p192
I729
sV2:00
p193
I1255
sVbackpack
p194
I209
sVavocado
p195
I1341
sV2:05
p196
I1982
sVwriting
p197
I1608
sVnew orleans
p198
I2834
sV3:18
p199
I2611
sVteddy roosevelt
p200
I2694
sV3:10
p201
I1596
sVswans
p202
I1816
sVcoffee
p203
I159
sVtourist
p204
I2683
sVwhite and blue
p205
I433
sVone in front
p206
I1518
sVmercedes benz
p207
I2098
sVgiraffe
p208
I47
sVglazed
p209
I822
sVsilver
p210
I58
sVbank
p211
I2581
sVbread
p212
I318
sVshadows
p213
I1080
sVbrushing teeth
p214
I225
sVmeat
p215
I487
sVpotatoes
p216
I747
sVon tray
p217
I2806
sVwii remotes
p218
I1260
sVl
I1406
sVdetroit
p219
I1432
sVrocks
p220
I265
sVside of road
p221
I1496
sVarrow
p222
I1454
sVcrocs
p223
I1435
sVbone
p224
I1449
sVfor train
p225
I2943
sVhanger
p226
I1904
sVlogs
p227
I1401
sVunder table
p228
I2287
sVspider
p229
I2032
sVsled
p230
I1491
sVwaffle
p231
I2652
sVblueberries
p232
I1761
sVmagnets
p233
I755
sVnavy
p234
I783
sVlogo
p235
I1882
sVflock
p236
I2494
sVin vase
p237
I1536
sV10 minutes
p238
I2253
sVlarge
p239
I388
sVrv
p240
I2355
sVvelvet
p241
I2659
sVdriving
p242
I824
sVmotel
p243
I1688
sVcameras
p244
I2548
sVdiesel
p245
I2166
sV9:25
p246
I1589
sVlego
p247
I1703
sVmedicine
p248
I2854
sVsurprise
p249
I1274
sVwasher
p250
I2273
sVmillions
p251
I2097
sVsliding
p252
I2040
sVgreen and orange
p253
I1094
sV3:50
p254
I2609
sVturning
p255
I1614
sVbarrier
p256
I2579
sVmichael jordan
p257
I2851
sVmario kart
p258
I2859
sVblue and green
p259
I1004
sVfree
p260
I1320
sVascending
p261
I2590
sVon tower
p262
I848
sVpumpkins
p263
I2762
sVusing laptop
p264
I2662
sVgrapes
p265
I593
sVlacoste
p266
I1891
sVknit
p267
I2883
sVblinders
p268
I1337
sVtabasco
p269
I2702
sVtree branch
p270
I1799
sVon chair
p271
I1391
sVshelves
p272
I1138
sVatv
p273
I2212
sVfestival
p274
I2158
sVsoda
p275
I553
sVmoving
p276
I721
sVclothes
p277
I492
sVmouth
p278
I1523
sV1:10
p279
I2244
sVstripe
p280
I2025
sVman in red
p281
I2861
sVbehind clouds
p282
I2201
sVflying kite
p283
I215
sVgazelle
p284
I2484
sVin street
p285
I2460
sVveggie
p286
I2282
sVon pole
p287
I1390
sVlettuce
p288
I413
sVkfc
p289
I2885
sVchevron
p290
I1945
sVfire truck
p291
I617
sVin tree
p292
I1894
sVscissors
p293
I152
sVthick
p294
I1622
sVplastic
p295
I216
sVtuna
p296
I2293
sVhood
p297
I2464
sVbasketball
p298
I653
sVhydrant
p299
I543
sVspinach
p300
I385
sVtop
p301
I390
sVgirls
p302
I1163
sVblackberry
p303
I1763
sVboating
p304
I2565
sVguitar hero
p305
I2136
sVlegs
p306
I1532
sVdogs
p307
I521
sVkiwi
p308
I1037
sVurban
p309
I451
sVceiling
p310
I766
sVon grass
p311
I688
sVfeathers
p312
I1912
sVgym
p313
I2478
sVserve
p314
I665
sVlower
p315
I2434
sVblue jay
p316
I1762
sVno left turn
p317
I1870
sVmouse pad
p318
I2092
sVcereal
p319
I1106
sVboarding
p320
I1450
sVtires
p321
I2015
sVpedestrian
p322
I2068
sVtree
p323
I109
sVfrench fries
p324
I858
sVshower
p325
I536
sVmotorcycle show
p326
I2093
sVspeaking
p327
I2332
sViron
p328
I1711
sVman on left
p329
I979
sVjoy
p330
I2888
sVbridge
p331
I298
sVdonkey
p332
I2511
sVfashion
p333
I1730
sVvery big
p334
I1796
sVgiraffes
p335
I256
sVboston
p336
I1053
sVmodern
p337
I889
sVglass
p338
I120
sVtalking
p339
I463
sVlava lamp
p340
I2441
sVmint
p341
I2849
sVnitro
p342
I2411
sVescalator
p343
I2160
sVperson
p344
I290
sVbleachers
p345
I1248
sVsan diego
p346
I2050
sVsnow
p347
I38
sVin stands
p348
I2461
sVchest
p349
I2538
sVparis
p350
I1859
sVcircles
p351
I902
sVgravy
p352
I1317
sVnobody
p353
I1394
sVzebras
p354
I204
sV5 ft
p355
I2234
sV6 feet
p356
I1458
sVvictoria
p357
I2002
sVmario
p358
I1878
sVregular
p359
I1835
sVpolar bear
p360
I539
sVthe
p361
I2690
sVmedical
p362
I2100
sVmetal
p363
I110
sVdog
p364
I35
sVjalapenos
p365
I2892
sVcamo
p366
I1050
sVpineapple
p367
I812
sVon plane
p368
I1866
sVqueen
p369
I1286
sVnorth america
p370
I2828
sVchandelier
p371
I864
sVradio
p372
I1380
sVhazy
p373
I1314
sVfork and knife
p374
I491
sVfisheye
p375
I1046
sVtoast
p376
I1130
sVbusy
p377
I2553
sVon bike
p378
I1868
sVmenu
p379
I1527
sVtrain tracks
p380
I1800
sVfolded
p381
I2491
sVon right
p382
I687
sVsugar
p383
I661
sVcelery
p384
I1443
sVbush
p385
I1110
sVrice
p386
I485
sVgoalie
p387
I1043
sVrectangle
p388
I372
sVlady
p389
I1705
sVplate
p390
I189
sVtiles
p391
I1809
sVsunglasses
p392
I151
sVnew york city
p393
I2833
sVgirl on right
p394
I2483
sVhonda
p395
I591
sVwatch
p396
I231
sVtelevision
p397
I1361
sVcardinals
p398
I1332
sVpocket
p399
I1289
sVwatermelon
p400
I708
sVtiled
p401
I2305
sVwedding
p402
I176
sVin her hand
p403
I2899
sVon desk
p404
I459
sVbat
p405
I102
sVbar
p406
I770
sVrowing
p407
I1502
sV2:10
p408
I1598
sVlicking
p409
I1700
sVbag
p410
I295
sVbad
p411
I1339
sVcoke
p412
I560
sVgrilled
p413
I1162
sVsteak
p414
I837
sVsteam
p415
I409
sV3:00
p416
I1184
sVin corner
p417
I2123
sVfluffy
p418
I2493
sVlemonade
p419
I2876
sV10:00
p420
I2625
sVnoodles
p421
I1683
sVskulls
p422
I2337
sVgame controller
p423
I2938
sVbrazil
p424
I1574
sVlots
p425
I850
sVsombrero
p426
I2715
sVaway
p427
I482
sVsail
p428
I1648
sVshaved
p429
I2343
sVsalt and pepper
p430
I2353
sVwetsuit
p431
I177
sVmud
p432
I1522
sVmug
p433
I1090
sVolympics
p434
I1295
sVwater tower
p435
I2271
sVyogurt
p436
I1784
sVlooking out window
p437
I1305
sVlaying down
p438
I478
sVherding
p439
I1220
sVnever
p440
I2087
sVnature
p441
I2836
sVteam
p442
I2695
sVlotion
p443
I2435
sVon top
p444
I1205
sVloading
p445
I1530
sVplaying game
p446
I811
sVskull and crossbones
p447
I1492
sVnews
p448
I2086
sVbehind fence
p449
I948
sVkitchen
p450
I28
sVcop
p451
I1939
sVright one
p452
I1081
sVcow
p453
I81
sVcountry
p454
I1101
sVelm
p455
I2162
sVon bench
p456
I1088
sVdough
p457
I2969
sVbaskets
p458
I2205
sVremote control
p459
I1654
sVthrowing frisbee
p460
I1621
sVphotographer
p461
I363
sVroller coaster
p462
I2753
sV2nd
p463
I1777
sVtowels
p464
I740
sVblending
p465
I2566
sVblonde
p466
I132
sVgrazing
p467
I312
sVconference
p468
I2529
sVbathroom
p469
I19
sV101
p470
I1605
sVbeef
p471
I563
sVroast beef
p472
I1652
sVon couch
p473
I1150
sVparsley
p474
I686
sVm&m's
p475
I2433
sVbeer
p476
I122
sVcherries
p477
I1567
sVstadium
p478
I2329
sVbasil
p479
I797
sV15 feet
p480
I2621
sVteenager
p481
I2693
sVdots
p482
I1235
sVlife
p483
I2875
sVbanana peel
p484
I1765
sVsprite
p485
I2030
sVmushroom
p486
I1521
sVlift
p487
I2438
sVcoffee table
p488
I2531
sVchild
p489
I252
sVchili
p490
I2536
sV3 feet
p491
I636
sVunion pacific
p492
I2286
sVorange and blue
p493
I1675
sVtank
p494
I2699
sVkingfisher
p495
I2444
sVeaster
p496
I2963
sVin zoo
p497
I2897
sVcracker
p498
I2990
sVair
p499
I578
sVlizard
p500
I1883
sVonion rings
p501
I1862
sVski lift
p502
I583
sVlife jacket
p503
I1886
sVstopping
p504
I1821
sVabove toilet
p505
I1343
sVbalance
p506
I512
sVk
I1309
sVcylinder
p507
I2978
sVcane
p508
I1108
sVmexico
p509
I1211
sVsticker
p510
I2322
sVsushi
p511
I1131
sVtissue
p512
I1358
sVcone
p513
I764
sVin
p514
I1414
sVseattle
p515
I1645
sVmouse
p516
I365
sVto keep people out
p517
I2684
sVin air
p518
I285
sVbottles
p519
I1176
sVemergency
p520
I1918
sVnike
p521
I139
sVtoaster
p522
I1482
sVpolaroid
p523
I2375
sVgray and red
p524
I2481
sVgreen and purple
p525
I2927
sVwhite and green
p526
I1261
sVbabies
p527
I2211
sVlife vest
p528
I2107
sVvegetable
p529
I960
sVplates
p530
I1510
sVbunny
p531
I1572
sVwheel
p532
I1996
sVt mobile
p533
I2703
sVleft one
p534
I1533
sVjungle
p535
I2887
sVrail
p536
I1020
sVrain
p537
I300
sVhand
p538
I440
sVwoman on left
p539
I1786
sVmountainous
p540
I2844
sVgarlic
p541
I2937
sVsoccer ball
p542
I879
sVkia
p543
I612
sVkid
p544
I2115
sVbutter
p545
I794
sVcorgi
p546
I2994
sVcondiments
p547
I2530
sVocean
p548
I153
sVwashington monument
p549
I1793
sVmother
p550
I2095
sVhearts
p551
I1160
sVjean
p552
I2451
sVleft
p553
I20
sVamerican flag
p554
I1118
sVflying tigers
p555
I2946
sVphoto
p556
I2066
sVlaptop
p557
I63
sVgoggles
p558
I345
sVhuman
p559
I2124
sVyes
p560
I1
sVwalgreens
p561
I2651
sVadidas
p562
I334
sVsunflower
p563
I1074
sVyamaha
p564
I1012
sVin front
p565
I1039
sVcherry
p566
I863
sVwings
p567
I2264
sVon napkin
p568
I2403
sVhay
p569
I243
sVn
I1395
sVboard
p570
I1958
sVeast
p571
I761
sVhat
p572
I70
sVcoffee maker
p573
I1941
sVturquoise
p574
I2291
sVmayo
p575
I2857
sVski pole
p576
I1078
sVwii controllers
p577
I1124
sVboxes
p578
I1002
sVdescending
p579
I2976
sVbackground
p580
I238
sVshadow
p581
I299
sV6:00
p582
I1345
sV12:30
p583
I1257
sVteddy bears
p584
I659
sVpanasonic
p585
I2797
sV55
p586
I733
sVlily
p587
I1306
sVgrizzly
p588
I1718
sV51
p589
I1976
sV50
p590
I230
sV53
p591
I1774
sVxbox
p592
I1785
sVtrain car
p593
I1801
sVpavement
p594
I1385
sVmickey mouse
p595
I1694
sVsteps
p596
I1276
sVnight
p597
I92
sVsecurity
p598
I2735
sVcirrus
p599
I2181
sVantique
p600
I1006
sVbutterfly
p601
I793
sVright
p602
I17
sVold
p603
I126
sVcrowd
p604
I2983
sVpeople
p605
I186
sVhe's not
p606
I2916
sVcrown
p607
I1937
sVdead
p608
I1326
sVplaying soccer
p609
I1850
sVdining room
p610
I649
sV2:20
p611
I2241
sVtie dye
p612
I1810
sVorchid
p613
I1516
sV10 years
p614
I2252
sVbottom
p615
I405
sVpurple
p616
I46
sVfox
p617
I2149
sVmicrowave
p618
I260
sVrhino
p619
I2056
sVfog
p620
I2945
sV3:30
p621
I2237
sVskateboarder
p622
I525
sVchristmas
p623
I107
sVcord
p624
I1102
sVkhaki
p625
I2446
sVpeel
p626
I2783
sVcorn
p627
I899
sVfiremen
p628
I2496
sVlamps
p629
I2442
sVpost
p630
I1846
sVdalmatian
p631
I1047
sVtrophy
p632
I2294
sVbenches
p633
I2200
sVcowboy
p634
I532
sVmeow
p635
I2099
sVplum
p636
I2771
sVblack bear
p637
I2567
sVdinner
p638
I522
sVafternoon
p639
I187
sVoctopus
p640
I1208
sVhospital
p641
I985
sVflatbread
p642
I2947
sVtoothpicks
p643
I2299
sVselfie
p644
I881
sVfern
p645
I1911
sVdown
p646
I95
sVromaine
p647
I2751
sVmagazines
p648
I1529
sVpetting
p649
I1666
sVparade
p650
I528
sVmark winterbourne
p651
I2858
sVpalm tree
p652
I2391
sVunder cat
p653
I2289
sVfabric
p654
I1917
sVwhite with black stripes
p655
I2643
sVflying
p656
I400
sVsunlight
p657
I1018
sVvirgin
p658
I2276
sVtowing
p659
I2297
sVwax
p660
I1999
sVwhite and yellow
p661
I1791
sVover easy
p662
I2394
sVwar
p663
I2650
sVhappy
p664
I205
sVfork
p665
I116
sVhead
p666
I420
sVmedium
p667
I753
sVyellow and white
p668
I957
sVsnowy
p669
I715
sVbatman
p670
I1962
sVtigers
p671
I2016
sVconverse
p672
I1329
sVlanding
p673
I469
sVford
p674
I557
sVwireless
p675
I1787
sVheat
p676
I1901
sVbottom right
p677
I1247
sVsailboats
p678
I1501
sViris
p679
I2456
sVlilies
p680
I981
sVtrains
p681
I1354
sVinside
p682
I314
sV2:25
p683
I1597
sVlays
p684
I2110
sV150
p685
I956
sVflat
p686
I1727
sVumpire
p687
I307
sVsaddles
p688
I2746
sVcleats
p689
I862
sVsale
p690
I2745
sV100 feet
p691
I1606
sVon sign
p692
I2399
sVpink and white
p693
I1144
sVat camera
p694
I473
sVship
p695
I968
sVtrip
p696
I2678
sVtriangles
p697
I2680
sVstyle
p698
I2706
sVno
p699
I2
sVfaces
p700
I2958
sVlooking in fridge
p701
I2868
sVtin
p702
I2686
sVsetting
p703
I925
sVangry birds
p704
I2215
sVpapers
p705
I1515
sVtie
p706
I158
sVsaucer
p707
I2741
sVpropellers
p708
I2765
sVwhipped cream
p709
I2268
sVevergreen
p710
I1323
sVpicture
p711
I223
sVthumbs up
p712
I1193
sVhandicap
p713
I1041
sVcenter
p714
I998
sVwide angle
p715
I2642
sVpurple and white
p716
I1843
sVfell
p717
I938
sVred sox
p718
I746
sVjones
p719
I2889
sV99
p720
I2221
sVyounger
p721
I2631
sVto left
p722
I1357
sVjacket
p723
I398
sVvietnam
p724
I2277
sVtime
p725
I1192
sVbackward
p726
I1966
sVadult
p727
I911
sVpeacock
p728
I1025
sVcoach
p729
I1103
sVbroke
p730
I1758
sVchain
p731
I865
sVplaying video games
p732
I2773
sVskis
p733
I131
sVfocus
p734
I2492
sVsilverware
p735
I2724
sVskate
p736
I1493
sVon bear
p737
I2820
sVdaytime
p738
I212
sVskiing
p739
I33
sVchair
p740
I144
sVtoothpick
p741
I1479
sVmilk
p742
I269
sVlong time
p743
I1698
sVdouble decker
p744
I286
sVflash
p745
I2948
sVprom
p746
I1844
sV0
I24
sVbicycles
p747
I523
sV9:35
p748
I2599
sVtusk
p749
I2010
sVbrushing his teeth
p750
I1757
sVon plate
p751
I354
sVbrown
p752
I13
sVsmartphone
p753
I2719
sVstring
p754
I923
sVbanana bread
p755
I2583
sVkitten
p756
I1091
sVcook
p757
I900
sVcool
p758
I2526
sVschnauzer
p759
I2349
sVon wall
p760
I219
sVclouds
p761
I304
sVstaples
p762
I2710
sVtricycle
p763
I2296
sVon shelves
p764
I2808
sVollie
p765
I1681
sVgun
p766
I1542
sVcloudy
p767
I105
sVox
p768
I2076
sVmagnet
p769
I1879
sVp
I515
sVsubway
p770
I804
sVburned
p771
I2555
sVsidewalk
p772
I240
sVround
p773
I166
sVseaweed
p774
I2348
sVslow down
p775
I2336
sVpork
p776
I843
sVheinz
p777
I2129
sVhtc
p778
I2125
sVcollage
p779
I2177
sVsign
p780
I396
sV11:40
p781
I2248
sVottoman
p782
I2800
sVharry potter
p783
I1903
sVrough
p784
I2051
sVdrinks
p785
I1733
sVcargo
p786
I767
sVstands
p787
I2326
sVwildebeest
p788
I2639
sV4:00
p789
I1978
sVuniform
p790
I2007
sVtarmac
p791
I2697
sVeaten
p792
I2504
sVfive star
p793
I2950
sVfalling
p794
I1230
sVgazebo
p795
I2143
sVred, white and blue
p796
I2057
sVtransportation
p797
I777
sVno smoking
p798
I1869
sVfrench
p799
I695
sVwater
p800
I37
sV2:30
p801
I2614
sVdon't walk
p802
I1557
sVbaseball
p803
I16
sVbaseball player
p804
I2206
sVfrosting
p805
I1165
sVhills
p806
I2468
sVeaston
p807
I2962
sVbox
p808
I294
sVboy
p809
I179
sVhbo
p810
I2474
sV3:20
p811
I2239
sVflames
p812
I2949
sVhealthy
p813
I1902
sVbus station
p814
I1755
sVname tag
p815
I2415
sVbow
p816
I619
sVfrench toast
p817
I2940
sVcinnamon
p818
I2182
sVbob
p819
I2564
sVpillow
p820
I526
sVeasyjet
p821
I2505
sVon rack
p822
I2402
sVlove
p823
I1153
sVhiking
p824
I1417
sVradish
p825
I1840
sVshark
p826
I2344
sVon tracks
p827
I645
sVsnowboard
p828
I171
sVsun hat
p829
I2317
sVfake
p830
I572
sVplaying wii
p831
I211
sVpony
p832
I2373
sVmarket
p833
I460
sVsunbathing
p834
I2704
sVworking
p835
I735
sVbirthday cake
p836
I2568
sVwicker
p837
I707
sV10:10
p838
I1258
sVfrance
p839
I937
sVbehind bench
p840
I2202
sVgoing
p841
I1543
sViphone
p842
I1712
sVtape
p843
I1271
sVangels
p844
I1969
sVfront of train
p845
I2487
sVbidet
p846
I2571
sVconductor
p847
I1746
sVclub
p848
I1565
sVphillies
p849
I1147
sVchocolate
p850
I136
sVdowntown
p851
I1171
sVriding
p852
I642
sVolive
p853
I2822
sVrobe
p854
I1284
sVfly
p855
I2151
sVbowler
p856
I2562
sVibm
p857
I1897
sVtokyo
p858
I2300
sVcar
p859
I114
sVcap
p860
I1753
sVcat
p861
I30
sVsoup
p862
I361
sVcan
p863
I943
sVferry
p864
I1228
sVmeatball
p865
I2856
sVpickle
p866
I846
sVheart
p867
I275
sVcrazy
p868
I2988
sVnursing
p869
I1393
sVmirrors
p870
I2420
sVdecember
p871
I2516
sVconfused
p872
I2528
sVparachute
p873
I1672
sVposing
p874
I466
sV11:00
p875
I2249
sVblack and brown
p876
I2199
sVclothing
p877
I1240
sVbaseball field
p878
I949
sVpink
p879
I25
sVrays
p880
I2757
sVwinter
p881
I55
sVto catch frisbee
p882
I1807
sVplaying video game
p883
I2774
sVsailboat
p884
I685
sVmagazine
p885
I1880
sVpine
p886
I229
sV1
I4
sVcardinal
p887
I2188
sVsword
p888
I2021
sVelephant
p889
I51
sVtile
p890
I96
sVmichigan
p891
I1875
sVmap
p892
I1035
sVlaundry
p893
I1889
sVmat
p894
I1304
sVcoming
p895
I1562
sVinformation
p896
I1893
sVflat screen
p897
I2154
sVspot
p898
I2712
sVon his head
p899
I1207
sVmac
p900
I1881
sVbirthday
p901
I147
sVtoilet paper
p902
I435
sVwetsuits
p903
I1125
sVvases
p904
I876
sVfloral
p905
I276
sVtablecloth
p906
I1194
sVman
p907
I43
sVsurfing
p908
I36
sVnatural
p909
I1089
sVneck
p910
I1151
sVcandles
p911
I596
sVred and blue
p912
I381
sVplacemat
p913
I1852
sVcorona
p914
I1437
sVcar show
p915
I1947
sVski poles
p916
I175
sVtruck
p917
I157
sVafrican
p918
I675
sVbasket
p919
I415
sVtall
p920
I836
sVclover
p921
I2533
sVbunk
p922
I1174
sVblue team
p923
I2198
sVwater fountain
p924
I2648
sVserving
p925
I840
sVshoes
p926
I445
sVhaircut
p927
I1420
sVpizza cutter
p928
I883
sVpitch
p929
I1665
sVmarshmallows
p930
I2426
sVcold
p931
I155
sVbraid
p932
I1759
sVbirds
p933
I226
sVpolice
p934
I210
sVmonitor
p935
I1525
sVcurly
p936
I990
sVdoing trick
p937
I2970
sVsmoothie
p938
I880
sVpolka dot
p939
I844
sVkayak
p940
I1892
sVunited kingdom
p941
I2668
sVplatform
p942
I1202
sVwindow
p943
I196
sVgatorade
p944
I1544
sVfarmer
p945
I1914
sVmail
p946
I2102
sVmain
p947
I1400
sVcutting hair
p948
I1933
sVtexas
p949
I1071
sVapron
p950
I798
sVtropicana
p951
I1616
sVtop left
p952
I1067
sVlunch
p953
I611
sV1950
p954
I1986
sVsafari
p955
I1649
sVhalf
p956
I936
sVarriving
p957
I1766
sVketchup
p958
I325
sVwagon
p959
I875
sVname
p960
I2090
sVparent and child
p961
I2073
sVrock
p962
I308
sVon refrigerator
p963
I2810
sVbats
p964
I1579
sVman made
p965
I2860
sVironing board
p966
I2896
sVturtle
p967
I2673
sVparmesan cheese
p968
I2387
sVsquare
p969
I193
sVelephants
p970
I192
sVgoose
p971
I1223
sVfires
p972
I2156
sVcatching
p973
I731
sVzebra
p974
I83
sVgirl
p975
I162
sVice cream
p976
I590
sVbunk beds
p977
I2557
sVcanada
p978
I341
sVliving
p979
I2871
sVcontainer
p980
I1940
sVboogie board
p981
I1112
sVpalm trees
p982
I1387
sVtulips
p983
I623
sVdo not enter
p984
I987
sVred and gray
p985
I1837
sVair force
p986
I1007
sVfactory
p987
I2957
sVlooking
p988
I2436
sVsquares
p989
I1196
sVeagle
p990
I697
sVdodgers
p991
I648
sVon counter
p992
I626
sVcars
p993
I367
sVparking lot
p994
I527
sV11:55
p995
I1987
sVcalifornia
p996
I905
sV11:50
p997
I2623
sVmarina
p998
I2428
sVheadband
p999
I518
sV12:15
p1000
I1602
sVpaper towels
p1001
I2390
sVtortilla
p1002
I2298
sVdeck
p1003
I2515
sVstir fry
p1004
I2027
sVheadphones
p1005
I511
sVbritish
p1006
I945
sVostrich
p1007
I1028
sVmotion
p1008
I1302
sVbutterflies
p1009
I2193
sVpepperoni
p1010
I268
sVswing
p1011
I1363
sVpaw prints
p1012
I2788
sVfirst
p1013
I1167
sVpelican
p1014
I814
sVtennis
p1015
I15
sVperson on left
p1016
I2067
sVbudweiser
p1017
I1446
sVsoftball
p1018
I1076
sVcrib
p1019
I1436
sVlong
p1020
I438
sVspanish
p1021
I567
sVsouthwest
p1022
I1019
sVring
p1023
I537
sVcustom
p1024
I2981
sVopen
p1025
I145
sVgeorge
p1026
I2935
sVsize
p1027
I1638
sVsheep
p1028
I57
sVcity
p1029
I200
sVlittle
p1030
I756
sVsheet
p1031
I2730
sV3:55
p1032
I1776
sVlap
p1033
I2111
sVtusks
p1034
I835
sVbutton up
p1035
I2192
sV2
I3
sVstuffed
p1036
I2319
sVtyping
p1037
I711
sVwhite
p1038
I5
sVfriend
p1039
I1166
sVeyes
p1040
I1169
sVon table
p1041
I191
sVbutt
p1042
I1953
sVthai
p1043
I2692
sVflowers
p1044
I73
sV11
p1045
I87
sV10
p1046
I40
sV13
p1047
I138
sV12
p1048
I71
sV15
p1049
I134
sV14
p1050
I203
sV17
p1051
I359
sV16
p1052
I246
sV19
p1053
I524
sV18
p1054
I338
sV10:05
p1055
I2251
sVhsbc
p1056
I1899
sVcoats
p1057
I1748
sVvictorian
p1058
I2656
sVr
I1381
sVknives
p1059
I1407
sVapples
p1060
I281
sVfruits
p1061
I1422
sVasleep
p1062
I2589
sVmarines
p1063
I2427
sVtractor
p1064
I1355
sVbaseball game
p1065
I2578
sVman in front
p1066
I2862
sVcoconut
p1067
I2999
sVana
p1068
I2216
sVangel
p1069
I2593
sVkenmore
p1070
I2448
sVgreyhound
p1071
I2138
sV3:25
p1072
I2238
sVsad
p1073
I745
sVbathe
p1074
I2576
sVabove door
p1075
I2598
sVpastry
p1076
I2071
sVsas
p1077
I2351
sVbreakfast
p1078
I181
sVwindsor
p1079
I1469
sVbatting
p1080
I634
sVspeakers
p1081
I1488
sVtulip
p1082
I2675
sVon cake
p1083
I2405
sVzoo
p1084
I108
sVdining
p1085
I2165
sVwrench
p1086
I2259
sVsurf
p1087
I566
sV200
p1088
I598
sVprinter
p1089
I1662
sVequestrian
p1090
I2501
sVopposite
p1091
I2802
sVtrack
p1092
I1617
sVcheesecake
p1093
I996
sVto get to other side
p1094
I2304
sVcrochet
p1095
I2986
sVknee
p1096
I2114
sVamerica
p1097
I1182
sVhitting ball
p1098
I2908
sVbehind him
p1099
I2573
sVboys
p1100
I1576
sVseafood
p1101
I2737
sVnapkin
p1102
I529
sVhungry
p1103
I934
sVmoose
p1104
I2846
sVhyundai
p1105
I2904
sVsunset
p1106
I330
sVwii remote
p1107
I258
sVsalt
p1108
I2354
sVwalking
p1109
I141
sVon bridge
p1110
I2817
sVbird seed
p1111
I2569
sVshow
p1112
I2726
sVgerman
p1113
I545
sVpeaches
p1114
I2069
sVbright
p1115
I2560
sVdandelions
p1116
I2977
sVshoe
p1117
I664
sVon dog
p1118
I2404
sVcorner
p1119
I993
sVground
p1120
I266
sVslow
p1121
I624
sVright side
p1122
I2054
sVabove sink
p1123
I1771
sVhit tennis ball
p1124
I2909
sVmiami
p1125
I2852
sVstained
p1126
I2327
sVtennis player
p1127
I1017
sVwood
p1128
I22
sVblack
p1129
I11
sVhockey
p1130
I2467
sVfanta
p1131
I1915
sVtennis racquet
p1132
I1483
sVblinds
p1133
I432
sVwool
p1134
I581
sVpink and black
p1135
I2777
sVpumpkin
p1136
I1382
sVsuitcases
p1137
I660
sVbarbed wire
p1138
I908
sV1 hour
p1139
I1990
sVcongratulations
p1140
I2174
sVwheelie
p1141
I2269
sVremotes
p1142
I1834
sVeat it
p1143
I2961
sVfar right
p1144
I1731
sValuminum
p1145
I1342
sVleather
p1146
I317
sVon suitcase
p1147
I2807
sVbraves
p1148
I1957
sVyield
p1149
I1061
sVmorning
p1150
I303
sVdog bed
p1151
I2971
sVsnowsuit
p1152
I2718
sVred and yellow
p1153
I371
sVbehind truck
p1154
I2572
sVtent
p1155
I1267
sVyellow and black
p1156
I832
sV5 years
p1157
I1591
sVleft of plate
p1158
I2877
sVpicnic
p1159
I1146
sVconcert
p1160
I2175
sVblue and red
p1161
I1003
sVseat
p1162
I1499
sV1920
p1163
I2620
sVcheckered
p1164
I277
sVpersian
p1165
I2381
sVparking
p1166
I458
sVcalendar
p1167
I1950
sVcolgate
p1168
I1239
sVblue and yellow
p1169
I448
sVcamping
p1170
I1948
sVfarmers
p1171
I2955
sVjumped
p1172
I2118
sVglaze
p1173
I2931
sVspoons
p1174
I1487
sV3
I6
sVdiamonds
p1175
I1739
sVreading
p1176
I324
sVsurfboards
p1177
I283
sVliving room
p1178
I78
sVlong sleeve
p1179
I2437
sVvertical
p1180
I737
sVscreen
p1181
I1198
sVdome
p1182
I1735
sVguitar
p1183
I382
sVjets
p1184
I1708
sVpens
p1185
I1667
sVtub
p1186
I1476
sVrugby
p1187
I1650
sVorange juice
p1188
I426
sVmany
p1189
I161
sV1:30
p1190
I1780
sVs
I1282
sV4:20
p1191
I1593
sVharbor
p1192
I1716
sVwheels
p1193
I1792
sVranch
p1194
I2365
sVacross street
p1195
I1056
sV12:00
p1196
I1010
sVpassenger
p1197
I353
sVbricks
p1198
I480
sVpot
p1199
I643
sVjeans
p1200
I233
sV60
p1201
I799
sV61
p1202
I2606
sVtwin
p1203
I775
sVwine tasting
p1204
I1259
sV64
p1205
I2227
sV65
p1206
I1974
sV66
p1207
I1183
sVpacifier
p1208
I1673
sVpolo
p1209
I508
sVorange and green
p1210
I2079
sVpigtails
p1211
I1512
sVboat
p1212
I129
sVturkey
p1213
I495
sVolives
p1214
I374
sVgolden gate
p1215
I1720
sVteddy
p1216
I1362
sVwest
p1217
I872
sVvacation
p1218
I2661
sVtropical
p1219
I1266
sVhelicopter
p1220
I1418
sVabstract
p1221
I1770
sV500
p1222
I1252
sVengine
p1223
I1231
sVdirection
p1224
I1431
sVshopping
p1225
I1497
sVsquash
p1226
I1075
sVwhite and orange
p1227
I1350
sVtiger
p1228
I741
sVbmw
p1229
I597
sVfoggy
p1230
I1045
sVskiers
p1231
I1636
sVcutting cake
p1232
I531
sVparasail
p1233
I2793
sVcaptivity
p1234
I1444
sVpilot
p1235
I929
sVcase
p1236
I1752
sV3:40
p1237
I2610
sV3:45
p1238
I2236
sVspiderman
p1239
I1368
sVreebok
p1240
I2362
sVtrick
p1241
I1798
sVhe fell
p1242
I2917
sV1:35
p1243
I2618
sVnewspaper
p1244
I668
sVmound
p1245
I1524
sVwax paper
p1246
I2647
sVslippers
p1247
I2039
sVno room
p1248
I2409
sVvest
p1249
I800
sVcanoe
p1250
I1333
sVpurse
p1251
I331
sVtelephone
p1252
I1624
sVsleeping
p1253
I182
sVmiddle
p1254
I284
sVgood
p1255
I479
sVheels
p1256
I1419
sVstickers
p1257
I1195
sVivy
p1258
I1411
sVbags
p1259
I869
sVpaw
p1260
I2789
sV10:30
p1261
I1989
sVbowl
p1262
I305
sVtour
p1263
I1802
sVplaying baseball
p1264
I748
sVmacaroni
p1265
I1697
sVpan
p1266
I1086
sVwires
p1267
I914
sV1950s
p1268
I2619
sVnest
p1269
I2088
sVfoam
p1270
I1547
sVseagulls
p1271
I601
sVrunning
p1272
I484
sVfruit
p1273
I149
sVwired
p1274
I2638
sVstatue
p1275
I682
sVclimbing
p1276
I1440
sVgrooming
p1277
I2926
sVhummingbird
p1278
I1415
sVfor photo
p1279
I2944
sVmohawk
p1280
I1034
sVwestin
p1281
I2645
sVflip phone
p1282
I1549
sVtheater
p1283
I1623
sVshih tzu
p1284
I1643
sVfloor
p1285
I263
sVon door
p1286
I2816
sVbottle
p1287
I503
sVpitbull
p1288
I1085
sVmodel
p1289
I1397
sVtaxi
p1290
I920
sVsummer
p1291
I236
sVoutdoor
p1292
I817
sVsteamed
p1293
I2324
sV12:05
p1294
I1603
sVmoney
p1295
I1691
sVkrispy kreme
p1296
I646
sVkneeling
p1297
I2884
sVsnowboarder
p1298
I1278
sVrose
p1299
I370
sVdesktop
p1300
I1740
sVbeagle
p1301
I1115
sVcolor
p1302
I501
sVred and silver
p1303
I2756
sV9:30
p1304
I1251
sV4
I9
sVshearing sheep
p1305
I2731
sV7:25
p1306
I1772
sVskier
p1307
I967
sVreal
p1308
I425
sVdigital
p1309
I2975
sVfridge
p1310
I490
sVdark
p1311
I988
sVtraffic
p1312
I962
sVmom
p1313
I1210
sVvacuum
p1314
I2283
sVworld
p1315
I2262
sVrailroad
p1316
I2366
sVcd
p1317
I2543
sVorange and black
p1318
I1517
sVrear
p1319
I2059
sVrocky
p1320
I1832
sVtowel
p1321
I264
sVkennedy
p1322
I2447
sVnissan
p1323
I1871
sVbracelet
p1324
I576
sVpole
p1325
I486
sVtoilet brush
p1326
I1481
sVt
I713
sVclay
p1327
I430
sVtower
p1328
I552
sVbow tie
p1329
I1111
sVon fridge
p1330
I2082
sVapple and banana
p1331
I1586
sVdoll
p1332
I1736
sVdole
p1333
I1737
sVtying tie
p1334
I2009
sV68
p1335
I2605
sVmonopoly
p1336
I2847
sVforehand
p1337
I2942
sVpasture
p1338
I2790
sVpickles
p1339
I813
sVred white and blue
p1340
I602
sVgenetics
p1341
I2936
sVwristband
p1342
I1013
sVcurious
p1343
I1934
sVcolonial
p1344
I2996
sVnoon
p1345
I387
sVmoon
p1346
I1689
sVexit
p1347
I1428
sVsledding
p1348
I2720
sVforks
p1349
I2150
sVlinoleum
p1350
I2873
sVknife
p1351
I178
sVfootball
p1352
I594
sVwheat
p1353
I1014
sVpower
p1354
I1287
sVsurfboard
p1355
I42
sVvolkswagen
p1356
I1263
sVbroken
p1357
I700
sVdrums
p1358
I2509
sVthailand
p1359
I2691
sVkite flying
p1360
I982
sVon
p1361
I291
sVharley davidson
p1362
I820
sVcentral
p1363
I2541
sVcobblestone
p1364
I1563
sVjeep
p1365
I1038
sVpelicans
p1366
I1668
sVsunny side up
p1367
I2316
sVmixer
p1368
I1692
sVshrimp
p1369
I808
sVwolf
p1370
I1993
sVstand
p1371
I1366
sVpockets
p1372
I2376
sVtoothpaste
p1373
I1129
sV8:50
p1374
I2600
sVroad
p1375
I337
sVheater
p1376
I1540
sVunited states
p1377
I774
sVearring
p1378
I1553
sVharness
p1379
I935
sVpolka dots
p1380
I971
sVburton
p1381
I2194
sVturn right
p1382
I2292
sVracquet
p1383
I1841
sVlog
p1384
I689
sVshells
p1385
I2729
sVphiladelphia
p1386
I2779
sV1:20
p1387
I1781
sV4:35
p1388
I1977
sVcats
p1389
I792
sVlow
p1390
I670
sVstars
p1391
I806
sV4:30
p1392
I1775
sVpaddle boarding
p1393
I2798
sVhard
p1394
I2134
sVon floor
p1395
I625
sVtugboat
p1396
I2676
sVtraffic lights
p1397
I2011
sVpitcher
p1398
I296
sVtripod
p1399
I2677
sVcabinet
p1400
I1109
sVomelet
p1401
I2821
sVnot there
p1402
I2826
sVbarber shop
p1403
I1964
sVeiffel tower
p1404
I1732
sVbaseball cap
p1405
I1580
sVpotato
p1406
I1845
sVbucket
p1407
I769
sVto right
p1408
I1805
sVstrawberry
p1409
I513
sVchristmas tree
p1410
I1241
sVdirty
p1411
I546
sVsuitcase
p1412
I124
sVflats
p1413
I2153
sVgrass
p1414
I45
sVrust
p1415
I1373
sVaa
p1416
I2219
sVgone
p1417
I1096
sVsecond from right
p1418
I2736
sVoxen
p1419
I2392
sVcross country
p1420
I728
sVdeer
p1421
I898
sVtennis shoes
p1422
I1268
sVdeep
p1423
I1930
sVbritain
p1424
I1245
sVpedestal
p1425
I1293
sVice
p1426
I984
sVin bushes
p1427
I2902
sVcollie
p1428
I548
sVantenna
p1429
I2592
sVwashing machine
p1430
I2649
sVred and white
p1431
I115
sVstorage
p1432
I1486
sVrubber
p1433
I2357
sVroses
p1434
I336
sV5
I14
sV36
p1435
I1464
sVmilking
p1436
I2850
sVthames
p1437
I2307
sVtrash
p1438
I474
sVpoor
p1439
I1024
sVpolar
p1440
I467
sVpillows
p1441
I1203
sVin box
p1442
I1311
sVteeth
p1443
I1269
sVm
I980
sVwaving
p1444
I1186
sV10:20
p1445
I1466
sVpool
p1446
I1142
sValcohol
p1447
I2596
sVred bull
p1448
I1082
sVlaptops
p1449
I786
sV2009
p1450
I1256
sVremote
p1451
I222
sVorioles
p1452
I750
sVon water
p1453
I1863
sVwife
p1454
I2641
sVblack and yellow
p1455
I906
sVmask
p1456
I754
sVvines
p1457
I1795
sVhello
p1458
I2914
sVposts
p1459
I2061
sVsewer
p1460
I2345
sVhusky
p1461
I1159
sVfor sale
p1462
I1423
sVdon't know
p1463
I1429
sVall
p1464
I910
sVmotocross
p1465
I1396
sVlace
p1466
I1706
sVchinese
p1467
I123
sVsuburban
p1468
I2705
sVceramic
p1469
I826
sVworms
p1470
I2261
sVcessna
p1471
I2540
sVparmesan
p1472
I2388
sVmessy
p1473
I1152
sVin sky
p1474
I1413
sVchildren
p1475
I698
sVbroccoli and carrots
p1476
I2559
sVcarpet
p1477
I493
sVapartment
p1478
I674
sVcollege
p1479
I2997
sVty
p1480
I2671
sVtv
p1481
I140
sVtail
p1482
I801
sVon road
p1483
I1679
sVone on right
p1484
I751
sVsmile
p1485
I807
sVcrest
p1486
I2987
sVpicnic table
p1487
I2065
sVwoman
p1488
I69
sVsitting
p1489
I125
sVvery
p1490
I232
sVscrewdriver
p1491
I2738
sVsimpsons
p1492
I2723
sVfan
p1493
I442
sVfall
p1494
I160
sVsony
p1495
I838
sVticket
p1496
I2687
sVgrilled cheese
p1497
I2480
sVwashing
p1498
I2001
sVcooler
p1499
I2173
sVlaying
p1500
I890
sVge
p1501
I2142
sVgrandfather
p1502
I1719
sVskate park
p1503
I351
sVdinosaur
p1504
I1558
sVsand
p1505
I143
sV2 hours
p1506
I1984
sVwii controller
p1507
I422
sVplain
p1508
I2776
sVsmall
p1509
I288
sVmother and child
p1510
I1874
sVvanilla
p1511
I738
sVstill
p1512
I2321
sVcookies
p1513
I825
sVfence
p1514
I93
sVtea
p1515
I462
sVreins
p1516
I1378
sVdesign
p1517
I2167
sVperspective
p1518
I2380
sVbarbecue
p1519
I1965
sVribbon
p1520
I1140
sVhandicapped
p1521
I2921
sVsub
p1522
I2318
sVclock
p1523
I199
sVsun
p1524
I208
sVstool
p1525
I924
sVsuv
p1526
I922
sVrun
p1527
I2356
sVdead end
p1528
I2517
sVwhite sox
p1529
I2267
sVracing
p1530
I882
sVpublic
p1531
I666
sVmovement
p1532
I2091
sVtattoos
p1533
I1814
sVfull
p1534
I725
sVtags
p1535
I1272
sVbowtie
p1536
I1175
sVvenice
p1537
I2658
sVsurfer
p1538
I714
sVtracks
p1539
I368
sVtrunk
p1540
I1127
sVdirections
p1541
I1927
sVstuffed animals
p1542
I742
sVfirst base
p1543
I2495
sVsiamese
p1544
I584
sVvegetarian
p1545
I2003
sVstretching
p1546
I1628
sVcucumbers
p1547
I1936
sVsoldier
p1548
I1826
sVairport
p1549
I100
sVbase
p1550
I1764
sVlasagna
p1551
I2878
sVcowboy hat
p1552
I2992
sV9:45
p1553
I1972
sVhoodie
p1554
I1313
sVfamily
p1555
I1322
sVbuses
p1556
I1334
sVafrica
p1557
I185
sVtalking on cell phone
p1558
I2700
sVcatching frisbee
p1559
I903
sVindoors
p1560
I419
sVtoys
p1561
I1015
sVnew zealand
p1562
I2831
sVdachshund
p1563
I1932
sV1900
p1564
I2246
sVuse toilet
p1565
I2664
sVdonuts
p1566
I154
sVtexting
p1567
I347
sVpoodle
p1568
I928
sVpearl
p1569
I2384
sVpitching
p1570
I972
sV6
I21
sVraft
p1571
I2367
sVmore
p1572
I2845
sVhorses
p1573
I146
sVladybug
p1574
I1534
sVdiamond
p1575
I471
sVdoor
p1576
I631
sVcaboose
p1577
I2550
sVcanon
p1578
I1754
sVmad
p1579
I2432
sVfaucet
p1580
I1913
sVmelon
p1581
I2424
sVflag
p1582
I441
sVstethoscope
p1583
I2708
sVstick
p1584
I743
sVlemons
p1585
I1702
sVtown
p1586
I1066
sVgrill
p1587
I855
sVnone
p1588
I250
sV3 inches
p1589
I2612
sVklm
p1590
I1408
sVred and green
p1591
I717
sVhit ball
p1592
I571
sV1:15
p1593
I2243
sVmall
p1594
I1695
sVspace needle
p1595
I1825
sVdump truck
p1596
I2507
sVclock tower
p1597
I994
sVv
I2004
sVseagull
p1598
I380
sVmale
p1599
I85
sVmarble
p1600
I628
sVgreen and red
p1601
I1421
sVwoman's
p1602
I2636
sVhamburger
p1603
I1222
sVto station
p1604
I2302
sVone in back
p1605
I2080
sVoranges and bananas
p1606
I2077
sVwallet
p1607
I1794
sVurinals
p1608
I2667
sVcows
p1609
I119
sVpond
p1610
I1509
sVairplane
p1611
I142
sVdress
p1612
I574
sVicing
p1613
I2903
sVhuge
p1614
I1537
sVcourt
p1615
I2993
sVgoal
p1616
I2929
sVcast iron
p1617
I2545
sVrye
p1618
I1831
sVon boat
p1619
I2819
sVnot very
p1620
I1297
sVgoat
p1621
I857
sVus airways
p1622
I2666
sVno parking
p1623
I608
sVplant
p1624
I373
sVsandwich
p1625
I127
sV25 cents
p1626
I2242
sVwater bottle
p1627
I915
sVcountryside
p1628
I2524
sVsoap dispenser
p1629
I2717
sVplane
p1630
I118
sVlighting
p1631
I1885
sVblood
p1632
I1336
sVwaves
p1633
I773
sVhorizontal
p1634
I1219
sVa
I676
sVshort
p1635
I416
sVtea kettle
p1636
I2310
sVcoat
p1637
I1564
sVtoiletries
p1638
I1804
sVdoctor
p1639
I2972
sVvolleyball
p1640
I959
sVdragon
p1641
I1324
sVin dish
p1642
I2900
sVcoal
p1643
I1942
sVshore
p1644
I1642
sVchopsticks
p1645
I575
sVshade
p1646
I386
sVcrafts
p1647
I2522
sVhello kitty
p1648
I691
sVegg
p1649
I860
sVplaying
p1650
I362
sV007
p1651
I2628
sVburnt
p1652
I2554
sVrottweiler
p1653
I1651
sVmexican
p1654
I1303
sVmercedes-benz
p1655
I1526
sVsoon
p1656
I1632
sV10:50
p1657
I2250
sVpaper
p1658
I190
sVscott
p1659
I2739
sVon skateboard
p1660
I1678
sVsigns
p1661
I1494
sVbroadway
p1662
I1244
sVsmiling
p1663
I839
sV24
p1664
I267
sV25
p1665
I172
sV26
p1666
I913
sV27
p1667
I621
sV20
p1668
I112
sV21
p1669
I580
sV22
p1670
I579
sV23
p1671
I535
sVelmo
p1672
I2502
sV28
p1673
I678
sV29
p1674
I954
sVmattress
p1675
I1398
sVpeanuts
p1676
I2385
sVpesto
p1677
I2781
sVsoccer
p1678
I77
sVsauce
p1679
I841
sVevening
p1680
I202
sVfood
p1681
I74
sVtape measure
p1682
I2311
sVtalking on phone
p1683
I239
sVfloating
p1684
I2152
sVcupcake
p1685
I991
sVpeeing
p1686
I1669
sVorange and gray
p1687
I2801
sVstarbucks
p1688
I683
sVweeds
p1689
I1064
sVfoot
p1690
I1546
sVtoronto
p1691
I2012
sVsanta hat
p1692
I1646
sVasparagus
p1693
I1249
sVsomeone
p1694
I2713
sVstopped
p1695
I1133
sVathletics
p1696
I2213
sVtrailer
p1697
I1190
sVlantern
p1698
I2879
sVheavy
p1699
I2131
sVengland
p1700
I221
sVpirates
p1701
I1511
sVring finger
p1702
I2755
sVhouse
p1703
I355
sVfish
p1704
I213
sVwhite and gray
p1705
I1063
sVhawaii
p1706
I2475
sVoil
p1707
I887
sVscratching
p1708
I2046
sVair canada
p1709
I1456
sVflower
p1710
I293
sVday time
p1711
I1931
sVtennis ball
p1712
I391
sVpower lines
p1713
I927
sVfireman
p1714
I2497
sVpigeon
p1715
I749
sVdugout
p1716
I1098
sVrace
p1717
I1842
sVsafety
p1718
I241
sVhill
p1719
I1539
sV7
I31
sVprint
p1720
I2370
sVcaucasian
p1721
I2186
sVhighway
p1722
I2128
sVvery tall
p1723
I710
sVforeground
p1724
I759
sVpeeling
p1725
I2383
sVdirt
p1726
I197
sVcalzone
p1727
I2191
sVporcelain
p1728
I1288
sVpug
p1729
I538
sVbulls
p1730
I2196
sVhouses
p1731
I1218
sVtoy
p1732
I423
sVcookie
p1733
I1438
sVguy
p1734
I2924
sVbushes
p1735
I1051
sVdishwasher
p1736
I1236
sVfar left
p1737
I2500
sVcomputers
p1738
I1561
sVrollerblades
p1739
I2752
sVrailroad crossing
p1740
I1657
sVamerican
p1741
I249
sVjelly
p1742
I2120
sVw
I582
sVdaisy
p1743
I762
sVsnowboarding
p1744
I84
sVcastle
p1745
I1569
sVcopper
p1746
I1744
sVadvertisement
p1747
I2597
sVwine glasses
p1748
I1122
sVdoughnuts
p1749
I2164
sVurinal
p1750
I1473
sVfancy
p1751
I1916
sVfeeder
p1752
I2498
sVfeet
p1753
I1229
sVweather vane
p1754
I1610
sVcups
p1755
I1559
sVwhale
p1756
I1997
sVmaple
p1757
I977
sVhorse
p1758
I59
sVguest
p1759
I2925
sVjet
p1760
I418
sVbroccoli
p1761
I49
sVstork
p1762
I1820
sVpaint
p1763
I667
sVleash
p1764
I851
sVstation
p1765
I805
sVwashington dc
p1766
I916
sVsyrup
p1767
I1815
sVbanana
p1768
I60
sVtennis rackets
p1769
I640
sVone in middle
p1770
I2804
sVselling
p1771
I2734
sVon track
p1772
I1677
sVbehind
p1773
I702
sVhotel
p1774
I348
sVpark
p1775
I220
sVto hold it together
p1776
I2685
sVsteering wheel
p1777
I1822
sVdrain
p1778
I1556
sVmural
p1779
I2840
sVburrito
p1780
I1954
sVmac and cheese
p1781
I2866
sVstairs
p1782
I662
sVobama
p1783
I719
sVking
p1784
I1409
sVfork and spoon
p1785
I1907
sVb
I635
sVdouble
p1786
I1925
sVtop right
p1787
I1128
sVshoulder length
p1788
I2727
sVemirates
p1789
I939
sVstore
p1790
I878
sVcatch ball
p1791
I1751
sVoutdoors
p1792
I555
sVsweet potato
p1793
I2313
sVtoward
p1794
I1356
sVshirts
p1795
I2728
sVcleaner
p1796
I1944
sVuniforms
p1797
I1189
sVskyscrapers
p1798
I1827
sVcoleslaw
p1799
I2178
sVcurtains
p1800
I1433
sVrefrigerators
p1801
I2361
sV10 feet
p1802
I831
sV1:05
p1803
I2245
sVjuice
p1804
I1215
sVgraffiti
p1805
I234
sV1:00
p1806
I1985
sVyellow and red
p1807
I734
sVabove stove
p1808
I1457
sVlid
p1809
I1402
sVmountain
p1810
I195
sVwilson
p1811
I335
sVdancing
p1812
I2170
sV63
p1813
I2228
sVspaghetti
p1814
I2035
sVon motorcycle
p1815
I2812
sVback left
p1816
I2587
sVcamouflage
p1817
I866
sVcouch
p1818
I198
sVsandwiches
p1819
I779
sVcamera flash
p1820
I2190
sV4:15
p1821
I2235
sVbrace
p1822
I1575
sVtransparent
p1823
I2681
sVin grass
p1824
I1896
sVplay
p1825
I1083
sVtowards
p1826
I1478
sVhot dogs
p1827
I344
sVsingles
p1828
I2341
sVeggs
p1829
I760
sVenglish
p1830
I470
sVsalmon
p1831
I1647
sVbananas and oranges
p1832
I2582
sVcoca cola
p1833
I271
sVcigarette
p1834
I651
sV75
p1835
I1590
sV74
p1836
I2604
sVbridle
p1837
I1448
sVmoss
p1838
I1033
sV70
p1839
I1344
sVnothing
p1840
I174
sV11:10
p1841
I1604
sVin cup
p1842
I2463
sVrefrigerator
p1843
I228
sVsauerkraut
p1844
I2048
sVwindows
p1845
I379
sVclear
p1846
I163
sVtongs
p1847
I1619
sVred and black
p1848
I436
sVtrain station
p1849
I360
sVclean
p1850
I561
sVbarrel
p1851
I1582
sV2.00
p1852
I2616
sVmicrosoft
p1853
I1693
sVstones
p1854
I1629
sVthomas
p1855
I1360
sVgolf
p1856
I1224
sVasphalt
p1857
I951
sVsparrow
p1858
I663
sVdirt bike
p1859
I941
sVhugging
p1860
I1898
sVfreight
p1861
I2148
sVman's
p1862
I1212
sVblender
p1863
I533
sVcopyright
p1864
I1743
sVscooter
p1865
I778
sVchiquita
p1866
I1330
sVin back
p1867
I1713
sV8
I34
sVcircle
p1868
I272
sVlooking down
p1869
I2869
sVgiants
p1870
I693
sVshepherd
p1871
I1280
sVtriangle
p1872
I319
sVdandelion
p1873
I2518
sVneon
p1874
I2835
sVwhite and pink
p1875
I1994
sVsunny
p1876
I65
sVgrocery
p1877
I2479
sVtrees
p1878
I90
sVplay tennis
p1879
I2377
sVbatter
p1880
I703
sVno one
p1881
I201
sVchimney
p1882
I2535
sVtarget
p1883
I2698
sVtaking off
p1884
I408
sVcatcher
p1885
I261
sVon horse
p1886
I2814
sVmotorcycles
p1887
I247
sV5:25
p1888
I1459
sVaround neck
p1889
I1968
sVon stove
p1890
I1389
sVtabby
p1891
I402
sVgloves
p1892
I383
sVdoubles
p1893
I1234
sVriver
p1894
I343
sVmouthwash
p1895
I2843
sVon ground
p1896
I397
sVtrain crossing
p1897
I2682
sVbars
p1898
I1581
sVart
p1899
I657
sVthrowing
p1900
I963
sVrolex
p1901
I2052
sVlion
p1902
I784
sVunsure
p1903
I1265
sVus air force
p1904
I2006
sVarm
p1905
I1181
sVanalog
p1906
I2594
sVbarn
p1907
I868
sVhanging from ceiling
p1908
I2919
sVpractice
p1909
I2769
sVexpert
p1910
I2959
sVpictures
p1911
I456
sVon rock
p1912
I2081
sVpickup
p1913
I2778
sVcrosswalk
p1914
I650
sVchampagne
p1915
I2184
sVeurope
p1916
I823
sVpaisley
p1917
I1204
sVrecently
p1918
I2058
sVisuzu
p1919
I2895
sVnot in service
p1920
I2407
sVfire extinguisher
p1921
I1728
sVdrinking water
p1922
I1922
sVpepsi
p1923
I457
sVbaby's breath
p1924
I1967
sVzipper
p1925
I2254
sVbronze
p1926
I2558
sVapples and oranges
p1927
I2591
sVon shore
p1928
I2400
sVboth
p1929
I421
sVc
I732
sVrestaurant
p1930
I227
sVbaseball bat
p1931
I577
sVroman
p1932
I781
sVeggplant
p1933
I2960
sV9:05
p1934
I1973
sV2:35
p1935
I1981
sVlanyard
p1936
I1308
sVoars
p1937
I2085
sVcakes
p1938
I1951
sVbell
p1939
I701
sVsweet
p1940
I1072
sVforklift
p1941
I2941
sVbadminton
p1942
I2586
sVchurch
p1943
I280
sVdrying hair
p1944
I2964
sVgoats
p1945
I1319
sVbelt
p1946
I1452
sVsuspenders
p1947
I2022
sVshingles
p1948
I2342
sVtop hat
p1949
I1618
sVpc
p1950
I2070
sVupside down
p1951
I1612
sVireland
p1952
I2457
sVpeppers
p1953
I437
sVbrick
p1954
I67
sVempty
p1955
I896
sVpm
p1956
I1143
sVresting
p1957
I262
sVvans
p1958
I1188
sVreferee
p1959
I1504
sVsquirrel
p1960
I2330
sVpassengers
p1961
I1148
sVfire
p1962
I447
sVgas
p1963
I306
sVorange and yellow
p1964
I2078
sVawake
p1965
I1584
sVginger
p1966
I2933
sVpedestrian crossing
p1967
I1513
sVplants
p1968
I605
sVvery old
p1969
I1065
sVfur
p1970
I1724
sVcuckoo
p1971
I2982
sVraw
p1972
I1506
sVballoons
p1973
I2208
sVstraight
p1974
I877
sVwhite and brown
p1975
I772
sVkodak
p1976
I2881
sVrope
p1977
I328
sVtow truck
p1978
I1191
sV5:00
p1979
I1773
sVfun
p1980
I1164
sVkissing
p1981
I1707
sVrobin
p1982
I2358
sVknee pads
p1983
I1036
sV5:05
p1984
I1975
sVcalculator
p1985
I2549
sVducks
p1986
I618
sVdecoration
p1987
I403
sVair conditioner
p1988
I1588
sVnightstand
p1989
I1520
sVold fashioned
p1990
I2823
sVleaving
p1991
I1404
sVcoca-cola
p1992
I2532
sVchase
p1993
I1750
sVfunny
p1994
I2486
sVitaly
p1995
I589
sVfedora
p1996
I630
sV8:00
p1997
I2222
sVcumulus
p1998
I763
sVkimono
p1999
I2445
sV9
I62
sVwindmill
p2000
I1609
sVhallway
p2001
I2476
sVknitting
p2002
I2882
sVkeys
p2003
I2116
sVpomegranate
p2004
I2374
sVleopard
p2005
I1307
sVcement
p2006
I1049
sVwhite and red
p2007
I599
sVcucumber
p2008
I992
sVcleaning
p2009
I791
sVsandals
p2010
I313
sVskateboard park
p2011
I2340
sVbrushing hair
p2012
I2197
sVbeanie
p2013
I2204
sVspices
p2014
I2033
sVolder
p2015
I1392
sVhorse racing
p2016
I1715
sVchickens
p2017
I2183
sVgrind
p2018
I2137
sVconcrete
p2019
I244
sVflags
p2020
I790
sVy
I2257
sVmoo
p2021
I2418
sVlamp post
p2022
I2880
sVyankees
p2023
I1121
sVlistening
p2024
I2872
sV11:20
p2025
I1988
sV12:40
p2026
I2622
sVpigeons
p2027
I845
sVin field
p2028
I983
sVdb
p2029
I2169
sVone world
p2030
I2803
sVshape
p2031
I2733
sVdoily
p2032
I2512
sVlexus
p2033
I1888
sVprince
p2034
I2060
sVping pong
p2035
I1855
sVcut
p2036
I1237
sVtablet
p2037
I1273
sVcup
p2038
I414
sVblankets
p2039
I1577
sVstainless steel
p2040
I410
sVholding it
p2041
I2466
sVegypt
p2042
I2503
sVgrapefruit
p2043
I1095
sVkites
p2044
I86
sVfurniture
p2045
I2145
sVlilacs
p2046
I2874
sVsurprised
p2047
I2023
sVin motion
p2048
I2898
sVaustralia
p2049
I950
sVradiator
p2050
I1021
sVbig
p2051
I652
sVskateboards
p2052
I507
sVjp morgan
p2053
I2450
sVbib
p2054
I947
sVgame
p2055
I694
sVflamingo
p2056
I2155
sVprivate
p2057
I1508
sVbrown and black
p2058
I1955
sVformal
p2059
I1227
sVuphill
p2060
I834
sVvests
p2061
I2657
sVd
I2171
sVsemi
p2062
I2044
sVtoyota
p2063
I638
sVglove
p2064
I349
sVfly kite
p2065
I1548
sVbaseball glove
p2066
I1963
sVwildcats
p2067
I2640
sVbamboo
p2068
I1055
sVunder counter
p2069
I2288
sV20 feet
p2070
I1120
sVgoogle
p2071
I1318
sVcones
p2072
I901
sVred white blue
p2073
I1836
sVspring
p2074
I443
sV1st
p2075
I1600
sVsome
p2076
I2714
sVback
p2077
I656
sVmarker
p2078
I2101
sVpalm
p2079
I117
sVclown
p2080
I3000
sVblue and white
p2081
I168
sVmirror
p2082
I183
sVcandle
p2083
I672
sVelectric
p2084
I356
sVscale
p2085
I1500
sVto sit on
p2086
I2303
sVpet
p2087
I2780
sVtools
p2088
I2013
sV5:15
p2089
I2231
sVbritish airways
p2090
I867
sVpen
p2091
I568
sVsneakers
p2092
I411
sVgolden retriever
p2093
I856
sVpee
p2094
I2784
sV12:55
p2095
I1465
sVnose
p2096
I1298
sVin basket
p2097
I1312
sVon sidewalk
p2098
I540
sVeating
p2099
I48
sV2:45
p2100
I2613
sV300
p2101
I2240
sVin background
p2102
I1158
sVrug
p2103
I412
sVstem
p2104
I2323
sVnowhere
p2105
I607
sVsanta
p2106
I926
sV5 feet
p2107
I1346
sVraspberry
p2108
I1839
sVgnome
p2109
I2930
sVlittle girl
p2110
I1884
sVkawasaki
p2111
I2449
sVfor balance
p2112
I1908
sVmcdonald's
p2113
I569
sVyellow and orange
p2114
I2633
sVgraduation
p2115
I2482
sVsurfers
p2116
I2024
sVmelbourne
p2117
I2853
sVbeans
p2118
I1005
sVgermany
p2119
I893
sVdaisies
p2120
I989
sVus open
p2121
I2005
sVcolorado
p2122
I2176
sVgarbage
p2123
I789
sVwater skiing
p2124
I450
sVlistening to music
p2125
I2104
sVto eat
p2126
I2014
sVfrog
p2127
I1725
sVsports
p2128
I2031
sVdownhill
p2129
I595
sVwine bottle
p2130
I2266
sVsightseeing
p2131
I2042
sVjockey
p2132
I1216
sVknife and spoon
p2133
I2112
sVvery long
p2134
I2278
sVapartments
p2135
I1767
sVdunkin donuts
p2136
I558
sVfast
p2137
I696
sVon car
p2138
I2083
sVhomemade
p2139
I2907
sVsuit
p2140
I464
sVforward
p2141
I859
sV11:15
p2142
I2624
sVon tree
p2143
I1864
sVmountains
p2144
I148
sVhimself
p2145
I2127
sVbuns
p2146
I2556
sVhawaiian
p2147
I2132
sVposter
p2148
I2770
sVraisins
p2149
I2758
sVt-shirt
p2150
I1626
sVcloth
p2151
I1104
sVtennis court
p2152
I407
sVpacific
p2153
I2075
sVdelta
p2154
I389
sVrussian
p2155
I1374
sVcrane
p2156
I861
sVcalico
p2157
I828
sVpenguin
p2158
I1292
sVlifeguard
p2159
I1531
sVclydesdale
p2160
I1749
sVskull
p2161
I966
sVsanta fe
p2162
I2742
sVfries
p2163
I520
sVup
p2164
I135
sVus
p2165
I1472
sVuk
p2166
I1797
sVplanes
p2167
I1084
sVwine glass
p2168
I565
sVfried
p2169
I2147
sVgeese
p2170
I1225
sVlabrador
p2171
I1155
sVpencil
p2172
I2382
sVnighttime
p2173
I720
sVsepia
p2174
I1281
sVwarning
p2175
I1262
sVcurb
p2176
I1935
sVflying kites
p2177
I530
sVcafe
p2178
I1570
sVstagecoach
p2179
I2328
sVcotton
p2180
I1048
sVrainbow
p2181
I289
sVrainy
p2182
I237
sVlemon
p2183
I417
sVpeach
p2184
I1514
sVpeace
p2185
I815
sVparakeet
p2186
I2389
sVtarp
p2187
I1270
sVvalentine's day
p2188
I1470
sVbrushing
p2189
I1447
sVspectators
p2190
I2034
sVmustard
p2191
I428
sVcrouching
p2192
I2984
sVlufthansa
p2193
I1213
sVfuton
p2194
I2485
sVdesert
p2195
I897
sVin car
p2196
I1093
sVpottery
p2197
I1384
sVtake off
p2198
I1625
sVland
p2199
I1704
sVe
I1233
sVherd
p2200
I2472
sVpedestrians
p2201
I1670
sVvehicles
p2202
I2660
sVmacaroni and cheese
p2203
I2865
sVcooked
p2204
I1745
sV2000
p2205
I1778
sVnasa
p2206
I2414
sVtaking picture
p2207
I311
sV2007
p2208
I1599
sVparking meter
p2209
I309
sV2005
p2210
I2615
sVfresh
p2211
I1545
sV2008
p2212
I1983
sVberries
p2213
I1338
sVbuffalo
p2214
I1756
sVstroller
p2215
I1132
sVin case
p2216
I2901
sVdesserts
p2217
I1929
sVwindy
p2218
I1123
sVfood truck
p2219
I2489
sVgo
p2220
I692
sVvery high
p2221
I1611
sVhard boiled
p2222
I2918
sVnypd
p2223
I2825
sVpizza hut
p2224
I1853
sVgold
p2225
I255
sVwindowsill
p2226
I1789
sVyoung
p2227
I346
sVsuits
p2228
I1817
sVgreen and blue
p2229
I1905
sVcasserole
p2230
I2546
sVfrisbees
p2231
I1906
sVcluttered
p2232
I1943
sVgravel
p2233
I1042
sVjet ski
p2234
I2890
sV11:30
p2235
I1782
sVpink and blue
p2236
I2064
sVgarden
p2237
I1723
sVoutside
p2238
I101
sVfishnet
p2239
I2951
sVdessert
p2240
I340
sVwave
p2241
I873
sVspoon
p2242
I218
sVwavy
p2243
I2000
sVfacebook
p2244
I2159
sVdrinking
p2245
I321
sVon building
p2246
I932
sVlegos
p2247
I1403
sVsnowboards
p2248
I1135
sVbutton
p2249
I1952
sVhigh chair
p2250
I2469
sVgray and white
p2251
I592
sVheineken
p2252
I2130
sVrack
p2253
I1200
sVsmaller
p2254
I1635
sVcrow
p2255
I1328
sVham
p2256
I614
sVboots
p2257
I504
sVair france
p2258
I1769
sVjump
p2259
I613
sVtraveling
p2260
I739
sVpajamas
p2261
I1388
sVindex
p2262
I1535
sVsausage
p2263
I716
sVcupcakes
p2264
I1238
sVbusiness
p2265
I1000
sVpaintings
p2266
I2074
sVchicago
p2267
I730
sVpipes
p2268
I2378
sVpaddle
p2269
I1026
sVwindow sill
p2270
I1062
sVcell
p2271
I2185
sVwaiting
p2272
I917
sVindian
p2273
I570
sVpoles
p2274
I604
sVbus stop
p2275
I795
sVgoatee
p2276
I2140
sVchain link
p2277
I562
sVbird
p2278
I103
sVscenery
p2279
I2740
sVsharks
p2280
I2732
sVleg
p2281
I2109
sVlei
p2282
I2439
sVkangaroo
p2283
I2886
sVcommercial
p2284
I765
sVnikon
p2285
I2412
sVraspberries
p2286
I2364
sVpacking
p2287
I1861
sVsink
p2288
I302
sVpancake
p2289
I2796
sVpeace sign
p2290
I2787
sV39
p2291
I1463
sV38
p2292
I704
sV33
p2293
I912
sV32
p2294
I830
sV31
p2295
I1254
sV30
p2296
I274
sV37
p2297
I1347
sValaska
p2298
I1455
sV35
p2299
I677
sV34
p2300
I1059
sVvideo game
p2301
I1264
sVreds
p2302
I1655
sVfirefox
p2303
I2953
sVapple
p2304
I53
sVcell phones
p2305
I699
sVwii
p2306
I41
sVriding horse
p2307
I2055
sVmotor
p2308
I1687
sVduck
p2309
I559
sVoval
p2310
I477
sVsan francisco
p2311
I969
sVsinging
p2312
I1639
sVcloud
p2313
I2179
sVlime
p2314
I1699
sVstanding
p2315
I98
sVred, white, and blue
p2316
I1505
sV1 inch
p2317
I2627
sVusa
p2318
I164
sVin glass
p2319
I2462
sVunder armour
p2320
I1474
sVrackets
p2321
I1658
sVthrow
p2322
I2688
sVnot at all
p2323
I2408
sVcamera
p2324
I99
sVcrab
p2325
I2991
sVplaying frisbee
p2326
I497
sVparliament
p2327
I2792
sVporch
p2328
I2372
sV$350
p2329
I2629
sVhalf full
p2330
I2477
sVstone
p2331
I194
sVvisibility
p2332
I1352
sVtrain
p2333
I54
sVparrots
p2334
I1857
sVrabbit
p2335
I1141
sVbaby
p2336
I322
sVmitsubishi
p2337
I2096
sVwhite and black
p2338
I736
sVwomen
p2339
I771
sVballs
p2340
I1453
sVanimals
p2341
I952
sVsalad
p2342
I327
sVf
I1168
sVtunnel
p2343
I1475
sVride
p2344
I1285
sVst patrick's day
p2345
I1824
sVram
p2346
I1507
sVdonut
p2347
I104
sVcarrot
p2348
I245
sVcrossed
p2349
I2521
sVthin
p2350
I964
sVdrill
p2351
I2968
sVisland
p2352
I2455
sVshoulder
p2353
I2043
sVshower curtain
p2354
I1828
sVcontrol
p2355
I2527
sVi don't know
p2356
I690
sVketchup and mustard
p2357
I1157
sVon woman
p2358
I2805
sVhalloween
p2359
I853
sVhigh
p2360
I787
sVhammer time
p2361
I1717
sVtag
p2362
I921
sVhilton
p2363
I2911
sVhit
p2364
I2910
sVtan
p2365
I97
sVskirt
p2366
I1137
sVhangar
p2367
I2920
sVlamb
p2368
I1405
sVunited
p2369
I680
sVonions
p2370
I586
sVtoaster oven
p2371
I919
sVboxing
p2372
I1246
sVboy scouts
p2373
I2561
sVlamp
p2374
I499
sVfanny pack
p2375
I2956
sVforest
p2376
I1044
sVfeta
p2377
I1910
sVbandana
p2378
I654
sVtoddler
p2379
I2301
sVriding bike
p2380
I1503
sVnot happy
p2381
I2827
sVbuildings
p2382
I1001
sVfarm
p2383
I986
sVstop
p2384
I50
sVwallpaper
p2385
I1351
sVnotebook
p2386
I1519
sVwrist
p2387
I2258
sV10:35
p2388
I1783
sVon roof
p2389
I2401
sVties
p2390
I1359
sVcabbage
p2391
I1571
sVhawk
p2392
I1315
sVterrier
p2393
I639
sVtomato
p2394
I282
sVtwins
p2395
I2672
sVsalt and pepper shakers
p2396
I2352
sVlight
p2397
I292
sVcounter
p2398
I366
sVlines
p2399
I2105
sVrobot
p2400
I2053
sVbakery
p2401
I655
sVchevrolet
p2402
I1105
sVnecklace
p2403
I610
sVpastries
p2404
I1386
sVstuffed animal
p2405
I641
sVmustache
p2406
I1300
sVus bank
p2407
I2665
sVbathing
p2408
I1054
sVknocked over
p2409
I2443
sVdown street
p2410
I1923
sVmeter
p2411
I2423
sVlicense plate
p2412
I1887
sVspatula
p2413
I1134
sVtaking pictures
p2414
I1484
sVmotorcycle
p2415
I61
sVmutt
p2416
I1299
sVhorns
p2417
I757
sVshopping cart
p2418
I1829
sVlg
p2419
I2108
sVpaper towel
p2420
I2794
sVsilk
p2421
I2725
sVbroom
p2422
I1573
sVrelish
p2423
I1377
sVrubber duck
p2424
I2749
sVsquatting
p2425
I1630
sVturban
p2426
I2674
sVpuerto rico
p2427
I2369
sVorange
p2428
I18
sV2011
p2429
I1009
sV2010
p2430
I1060
sV2013
p2431
I955
sV2012
p2432
I1008
sVdad
p2433
I1172
sVfood processor
p2434
I2490
sVthrow frisbee
p2435
I1812
sVwashington
p2436
I709
sVnokia
p2437
I888
sVbeads
p2438
I2575
sVoranges
p2439
I224
sVtoshiba
p2440
I1803
sVdock
p2441
I632
sVcutting
p2442
I547
sVspray paint
p2443
I1367
sVcat and dog
p2444
I1568
sVsnoopy
p2445
I2038
sVhands
p2446
I1161
sVfront
p2447
I519
sV1:55
p2448
I1779
sVday
p2449
I167
sV1:50
p2450
I1601
sVto see
p2451
I1620
sVnext to toilet
p2452
I2413
sVhula hoop
p2453
I2905
sVsniffing
p2454
I1369
sVcrossing
p2455
I2172
sVbank of america
p2456
I1116
sVtray
p2457
I776
sVglasses
p2458
I133
sVmets
p2459
I2422
sVlilac
p2460
I2106
sVunder sink
p2461
I2008
sVon bed
p2462
I468
sVglobe
p2463
I1721
sV700
p2464
I2224
sVpotato salad
p2465
I2371
sVmulticolored
p2466
I2416
sV88
p2467
I2601
sVbooks
p2468
I273
sVsweatshirt
p2469
I1364
sVdr pepper
p2470
I1734
sVshearing
p2471
I1079
sVsandy
p2472
I2049
sVout
p2473
I974
sVfrontier
p2474
I2939
sVparasailing
p2475
I498
sVoriental
p2476
I2397
sVplayground
p2477
I2775
sVski slope
p2478
I2721
sVbrown and white
p2479
I235
sVelectronics
p2480
I1919
sVwindsurfing
p2481
I1185
sVred
p2482
I7
sVproctor
p2483
I2766
sVshut
p2484
I1641
sVwater ski
p2485
I2272
sVumbrella
p2486
I56
sVwatermark
p2487
I2270
sVipod
p2488
I1310
sVdiagonal
p2489
I2513
sVnapkins
p2490
I1872
sVx
I871
sVborder collie
p2491
I2563
sVbackwards
p2492
I1340
sVorganic
p2493
I2398
sVg
I1226
sVusing computer
p2494
I2663
sVskateboard
p2495
I39
sVducati
p2496
I2508
sVyarn
p2497
I1468
sVproduce
p2498
I1661
sVears
p2499
I2506
sVvegetables
p2500
I278
sVsouth
p2501
I744
sVit's raining
p2502
I2121
sVzucchini
p2503
I2630
sVknife and fork
p2504
I2113
sVplaystation
p2505
I2772
sVtennis racket
p2506
I89
sVjesus
p2507
I1709
sVtater tots
p2508
I2696
sVowner
p2509
I930
sVumbrellas
p2510
I253
sV5:10
p2511
I2608
sVred, white, blue
p2512
I1379
sVmonkey
p2513
I669
sVprivacy
p2514
I1201
sVbears
p2515
I342
sVunknown
p2516
I494
sVpots
p2517
I1023
sVbig ben
p2518
I633
sVnew york
p2519
I301
sVhexagon
p2520
I2912
sVblue and black
p2521
I1177
sVbeard
p2522
I907
sVshell
p2523
I1372
sVlot
p2524
I217
sVshorts
p2525
I352
sVbulldog
p2526
I796
sVshelf
p2527
I483
sVshallow
p2528
I809
sVschool bus
p2529
I1139
sVdreadlocks
p2530
I2510
sVyellow and blue
p2531
I505
sVmanhole
p2532
I2429
sVherself
p2533
I2471
sVsteel
p2534
I514
sV2:55
p2535
I1980
sV2:50
p2536
I1348
sVbed
p2537
I106
sVlooking at camera
p2538
I2870
sVcat in hat
p2539
I2544
sVtennis balls
p2540
I2308
sVgirl on left
p2541
I2932
sVwheelchair
p2542
I1995
sV7 eleven
p2543
I2225
sVclip
p2544
I2180
sV54
p2545
I2232
sVcarrots
p2546
I128
sVone way
p2547
I510
sVon bread
p2548
I2818
sVrecessed
p2549
I1838
sVquiche
p2550
I2759
sVcurved
p2551
I1327
sVsidecar
p2552
I1495
sV6:45
p2553
I2226
sVcatholic
p2554
I2187
sVmicrophone
p2555
I819
sV9:55
p2556
I2220
sVsprinkles
p2557
I684
sVdishes
p2558
I1430
sVcranes
p2559
I2989
sVbagel
p2560
I1583
sVmango
p2561
I2430
sVvisor
p2562
I658
sVsoap
p2563
I1077
sVpretzels
p2564
I2767
sVfeeding giraffe
p2565
I1729
sVsewing
p2566
I1644
sVcamper
p2567
I2547
sVkickstand
p2568
I1156
sVbiplane
p2569
I1451
sVlogitech
p2570
I2103
sVsedan
p2571
I2347
sVvultures
p2572
I2274
sVsmiley face
p2573
I1371
sVbeets
p2574
I2203
sVhot dog
p2575
I88
sVthanksgiving
p2576
I2017
sVface
p2577
I671
sVpipe
p2578
I2063
sVstrawberries
p2579
I506
sVlos angeles
p2580
I1214
sVmovie
p2581
I1685
sVholstein
p2582
I2465
sVskinny
p2583
I2041
sVpainting
p2584
I585
sVu turn
p2585
I2670
sVblack and gray
p2586
I1178
sVteddy bear
p2587
I94
sVwatching tv
p2588
I874
sVkite
p2589
I44
sVcute
p2590
I2979
sVstove
p2591
I424
sVindoor
p2592
I1412
sVantelope
p2593
I2214
sVbikes
p2594
I534
sVparked
p2595
I847
sVbedroom
p2596
I113
sVsoldiers
p2597
I2333
sVchicken
p2598
I206
sVon man
p2599
I1206
sVdaffodils
p2600
I1742
sVplanter
p2601
I2062
sVtire
p2602
I1016
sVto catch ball
p2603
I1808
sVpolice officer
p2604
I1847
sVsamuel adams
p2605
I2743
sVcrows
p2606
I2520
sVsunflowers
p2607
I1073
sVmustard and ketchup
p2608
I2839
sVplaying tennis
p2609
I259
sVpiano
p2610
I886
sVon sink
p2611
I1087
sVthousands
p2612
I2689
sVdodge
p2613
I1926
sVhandle
p2614
I852
sVwatching
p2615
I600
sVphotography
p2616
I1291
sVstripes
p2617
I130
sVbear
p2618
I72
sVbaggage claim
p2619
I2210
sVcubs
p2620
I1100
sVwords
p2621
I1349
sVstriped
p2622
I316
sVchips
p2623
I995
sVstyrofoam
p2624
I1365
sVsweat
p2625
I2314
sVgray
p2626
I27
sVtrucks
p2627
I1477
sVh
I2923
sVmarried
p2628
I1876
sVminnie mouse
p2629
I2421
sVpirate
p2630
I1854
sVmercedes
p2631
I541
sVcostume
p2632
I2525
sVspotted
p2633
I2711
sVhardwood
p2634
I2133
sVlazy
p2635
I2440
sVroman numerals
p2636
I780
sVyorkie
p2637
I2256
sVcomputer
p2638
I333
sVdriveway
p2639
I2163
sVskateboarding
p2640
I29
sVracket
p2641
I279
sV1:40
p2642
I2617
sVvolvo
p2643
I2654
sV8 feet
p2644
I2602
sVgreen and white
p2645
I615
sV4:50
p2646
I1592
sVto dry
p2647
I1806
sVwire
p2648
I323
sV12 feet
p2649
I2247
sVamtrak
p2650
I1768
sVu haul
p2651
I1613
sVmeatballs
p2652
I2855
sVcarriage
p2653
I549
sVhammock
p2654
I2135
sVidentification
p2655
I1040
sVclosed
p2656
I297
sVneither
p2657
I2089
sVflickr
p2658
I1427
sVpants
p2659
I1294
sVblack and red
p2660
I673
sVcauliflower
p2661
I1946
sVhorizontally
p2662
I2906
sVcutting board
p2663
I404
sVparking meters
p2664
I1858
sVon his face
p2665
I1867
sVstreet lights
p2666
I2707
sVmailbox
p2667
I2431
sVblack and white
p2668
I32
sVthumb
p2669
I1811
sVski resort
p2670
I1637
sVtoothbrush
p2671
I188
sVbarrette
p2672
I2580
sVon beach
p2673
I2084
sVtail lights
p2674
I2701
sVramp
p2675
I603
sVno lights
p2676
I2829
sVout of focus
p2677
I2396
sVwillow
p2678
I1790
sVgrain
p2679
I2928
sVin snow
p2680
I1895
sVcanopy
p2681
I1445
sVpeanut butter
p2682
I2386
sVvent
p2683
I1126
sVunclear
p2684
I2669
sVstatues
p2685
I2028
sVtoilet
p2686
I169
sVwall
p2687
I156
sVdenim
p2688
I1325
sVwalk
p2689
I1187
sVtable
p2690
I76
sVin water
p2691
I251
sVtank top
p2692
I712
sVpackages
p2693
I2799
sVmotorbike
p2694
I2094
sVrusty
p2695
I2748
sVtraffic light
p2696
I961
sVhigh heels
p2697
I1900
sVyak
p2698
I1991
sVcurtain
p2699
I1099
sVon hill
p2700
I2815
sVorange and white
p2701
I509
sVcircus
p2702
I1441
sVverizon
p2703
I2280
sVpainted
p2704
I1860
sVone on left
p2705
I931
sVairplanes
p2706
I2217
sVcontroller
p2707
I942
sVaccident
p2708
I1057
sVbull
p2709
I944
sVsmoking
p2710
I1370
sVno entry
p2711
I2410
sVmulti
p2712
I1032
sVplaid
p2713
I170
sVcouple
p2714
I2523
sVtiara
p2715
I2306
sVrunway
p2716
I810
sVnew york yankees
p2717
I2832
sVchalk
p2718
I1331
sVafrican american
p2719
I1971
sVwild
p2720
I833
sVbathtub
p2721
I1179
sVtoothbrushes
p2722
I918
sVon runway
p2723
I2809
sVripe
p2724
I2754
sVon street
p2725
I818
sVrooster
p2726
I1375
sVgothic
p2727
I892
sVname tags
p2728
I2837
sVswinging
p2729
I802
sVvw
p2730
I2653
sVarabic
p2731
I1585
sVstained glass
p2732
I2029
sVtattoo
p2733
I681
sVwinnie pooh
p2734
I1788
sVpecans
p2735
I2785
sVballoon
p2736
I1180
sVcross
p2737
I500
sVpeanut butter and jelly
p2738
I2786
sVspeaker
p2739
I1277
sVflour
p2740
I1424
sVnathan's
p2741
I1684
sVparty
p2742
I816
sVnorth face
p2743
I1682
sVcream
p2744
I1938
sVtomatoes
p2745
I406
sVball
p2746
I180
sVdusk
p2747
I573
sVdrink
p2748
I1170
sVoctagon
p2749
I516
sVhair dryer
p2750
I758
sVyellow and pink
p2751
I2632
sVoveralls
p2752
I1027
sVcollar
p2753
I472
sVmosaic
p2754
I2417
sVstreet light
p2755
I1485
sVoff
p2756
I556
sVreflection
p2757
I554
sVyellow and green
p2758
I1011
sVovercast
p2759
I254
sVgerman shepherd
p2760
I724
sVmen's
p2761
I1528
sVfighting
p2762
I1550
sVtricks
p2763
I2679
sV52
p2764
I2233
sVbaltimore
p2765
I2207
sV350
p2766
I1119
sVpowdered sugar
p2767
I1383
sVdrawing
p2768
I1555
sVroyal navy
p2769
I2750
sVon left
p2770
I332
sVtaller
p2771
I2312
sVcoaster
p2772
I1439
sVbananas
p2773
I75
sVcamel
p2774
I1949
sVsavannah
p2775
I2350
sVoak
p2776
I427
sVmaple leaf
p2777
I1399
sVjar
p2778
I2452
sVstate farm
p2779
I1823
sVclocks
p2780
I1566
sVfishing
p2781
I616
sVfire hydrant
p2782
I150
sVhappiness
p2783
I1221
sVtoilets
p2784
I1068
sVfield
p2785
I257
sVgmc
p2786
I2141
sVresidential
p2787
I1653
sVsky
p2788
I395
sVlake
p2789
I488
sVbench
p2790
I80
sVmain street
p2791
I1696
sVdifferent teams
p2792
I1928
sVwet
p2793
I679
sVjars
p2794
I2891
sVski
p2795
I444
sVriding elephant
p2796
I2359
sVpeople walking
p2797
I2782
sVdriver
p2798
I2967
sVstreet sign
p2799
I2026
sVwoman on right
p2800
I2637
sVdryer
p2801
I2966
sVdesk
p2802
I357
sVpropeller
p2803
I1022
sVdoughnut
p2804
I1924
sVintersection
p2805
I2458
sVpier
p2806
I885
sVmotorola
p2807
I1209
sVonion
p2808
I1029
sVchairs
p2809
I997
sVsofa
p2810
I2716
sVcandy
p2811
I904
sVcontrollers
p2812
I2995
sVgarage
p2813
I894
sVmountain dew
p2814
I1686
sVparty bus
p2815
I2791
sVsoft
p2816
I1489
sVitalian
p2817
I933
sVoutfield
p2818
I2395
sVscared
p2819
I2047
sVlibrary
p2820
I785
sVhair
p2821
I854
sVcleaning itself
p2822
I2534
sValmonds
p2823
I1587
sVhome
p2824
I376
sVthrow ball
p2825
I1813
sVleaf
p2826
I1154
sVgreen and yellow
p2827
I821
sVkettle
p2828
I1410
sVham and cheese
p2829
I2922
sVfedex
p2830
I647
sVstudents
p2831
I1818
sVfountain
p2832
I2488
sVon laptop
p2833
I2813
sValuminum foil
p2834
I2595
sVearrings
p2835
I1920
sVchains
p2836
I1442
sVmulch
p2837
I2841
sVblurry
p2838
I1113
sVpepper
p2839
I644
sVhose
p2840
I1416
sVin middle
p2841
I2122
sVmitt
p2842
I2419
sVbowling
p2843
I946
sVlighthouse
p2844
I588
sVtelling time
p2845
I2309
sVpeas
p2846
I1671
sVdiet coke
p2847
I1738
sVpasta
p2848
I782
sVfluorescent
p2849
I1097
sVhiding
p2850
I2470
sVtell time
p2851
I2019
sVus airways express
p2852
I2284
sVred velvet
p2853
I1656
sVshaking hands
p2854
I1830
sVsaddle
p2855
I1199
sVskatepark
p2856
I2339
sVtaking selfie
p2857
I2020
sVsippy cup
p2858
I2722
sVrodeo
p2859
I1283
sVseeds
p2860
I2346
sVbeige
p2861
I378
sVblue and gray
p2862
I1960
sVtongue
p2863
I1480
sVferris wheel
p2864
I2954
sVswimming
p2865
I452
sVblack and orange
p2866
I1578
sVowl
p2867
I606
sVletters
p2868
I1701
sVstop sign
p2869
I392
sVbud light
p2870
I1335
sVsocks
p2871
I1490
sVmushrooms
p2872
I849
sVtrunks
p2873
I1615
sVbrush
p2874
I1052
sVfemale
p2875
I79
sVon shelf
p2876
I1030
sVagainst wall
p2877
I2218
sVmississippi
p2878
I2848
sVvan
p2879
I637
sVveil
p2880
I2281
sVmuseum
p2881
I752
sVtents
p2882
I2018
sVfirefighter
p2883
I2157
sVspiral
p2884
I2331
sVgetting food
p2885
I2934
sVcontinental
p2886
I1560
sVbump
p2887
I2195
sVcoffee cup
p2888
I2998
sVsuzuki
p2889
I2315
sVbackhand
p2890
I1117
sVbuilding
p2891
I207
sVivory
p2892
I2454
sVnorth
p2893
I627
sVbus
p2894
I82
sVhp
p2895
I1217
sVsweatband
p2896
I1627
sVdelivery
p2897
I2168
sVconstruction
p2898
I1173
sVbun
p2899
I768
sVpantry
p2900
I2795
sVbookshelf
p2901
I1760
sVear
p2902
I1921
sVeat
p2903
I1232
sV5:40
p2904
I2230
sVpolar bears
p2905
I1848
sVmade
p2906
I2863
sVprotesting
p2907
I2764
sVj
I2453
sVsmooth
p2908
I1634
sVflip
p2909
I1426
sVon bus
p2910
I2406
sVbelow
p2911
I1114
sVpartly cloudy
p2912
I2072
sVcello
p2913
I2542
sVcake
p2914
I66
sVqantas
p2915
I2368
sVskating
p2916
I1279
sVwebsite
p2917
I1998
sVsupreme
p2918
I1275
sVon elephant
p2919
I1680
sVtissues
p2920
I1069
sVpie
p2921
I1145
sVmaroon
p2922
I1877
sVpig
p2923
I884
sVspace shuttle
p2924
I2036
sVutensils
p2925
I1471
sVpenne
p2926
I1856
sV80
p2927
I2223
sVbalcony
p2928
I2584
sVrelaxing
p2929
I2360
sV48
p2930
I1595
sV49
p2931
I1594
sV46
p2932
I1979
sV47
p2933
I1460
sV44
p2934
I953
sV45
p2935
I870
sV42
p2936
I1253
sV43
p2937
I1058
sV40
p2938
I449
sV41
p2939
I1461
sVwestminster
p2940
I2644
sVbook
p2941
I358
sVoar
p2942
I2824
sVbranch
p2943
I401
sVfinch
p2944
I895
sVgranite
p2945
I544
sVgas station
p2946
I1722
sVponytail
p2947
I446
sVdresser
p2948
I1554
sVjunk
p2949
I2117
sVfrisbee
p2950
I23
sVstar
p2951
I384
sVpink and yellow
p2952
I1290
sVfootprints
p2953
I1909
sVon toilet
p2954
I1865
sVfoil
p2955
I726
sVjetblue
p2956
I2119
sVnintendo
p2957
I975
sVno 1
p2958
I2830
sVjackson
p2959
I2893
sVfriends
p2960
I1726
sVwriting ticket
p2961
I2635
sVphilips
p2962
I2379
sVsamsung
p2963
I454
sV2 feet
p2964
I551
sVbaker
p2965
I2209
sVspace
p2966
I1631
sVpulled pork
p2967
I2763
sVrural
p2968
I970
sVbaked
p2969
I2585
sVbuoy
p2970
I1243
s.